
2-Mode_Select_Button_LED_LL.elf:     file format elf32-littlearm

Sections:
Idx Name          Size      VMA       LMA       File off  Algn
  0 .isr_vector   000001d8  08000000  08000000  00001000  2**0
                  CONTENTS, ALLOC, LOAD, READONLY, DATA
  1 .text         00000b78  080001d8  080001d8  000011d8  2**2
                  CONTENTS, ALLOC, LOAD, READONLY, CODE
  2 .rodata       00000000  08000d50  08000d50  00002004  2**0
                  CONTENTS, ALLOC, LOAD, DATA
  3 .ARM.extab    00000000  08000d50  08000d50  00002004  2**0
                  CONTENTS, READONLY
  4 .ARM          00000000  08000d50  08000d50  00002004  2**0
                  CONTENTS, READONLY
  5 .preinit_array 00000000  08000d50  08000d50  00002004  2**0
                  CONTENTS, ALLOC, LOAD, DATA
  6 .init_array   00000004  08000d50  08000d50  00001d50  2**2
                  CONTENTS, ALLOC, LOAD, READONLY, DATA
  7 .fini_array   00000004  08000d54  08000d54  00001d54  2**2
                  CONTENTS, ALLOC, LOAD, READONLY, DATA
  8 .data         00000004  20000000  08000d58  00002000  2**2
                  CONTENTS, ALLOC, LOAD, DATA
  9 .bss          0000001c  20000004  08000d5c  00002004  2**2
                  ALLOC
 10 ._user_heap_stack 00000600  20000020  08000d5c  00002020  2**0
                  ALLOC
 11 .ARM.attributes 00000030  00000000  00000000  00002004  2**0
                  CONTENTS, READONLY
 12 .debug_info   00002e08  00000000  00000000  00002034  2**0
                  CONTENTS, READONLY, DEBUGGING, OCTETS
 13 .debug_abbrev 000008f0  00000000  00000000  00004e3c  2**0
                  CONTENTS, READONLY, DEBUGGING, OCTETS
 14 .debug_aranges 00000308  00000000  00000000  00005730  2**3
                  CONTENTS, READONLY, DEBUGGING, OCTETS
 15 .debug_rnglists 00000231  00000000  00000000  00005a38  2**0
                  CONTENTS, READONLY, DEBUGGING, OCTETS
 16 .debug_macro  0001d9a8  00000000  00000000  00005c69  2**0
                  CONTENTS, READONLY, DEBUGGING, OCTETS
 17 .debug_line   00002a5a  00000000  00000000  00023611  2**0
                  CONTENTS, READONLY, DEBUGGING, OCTETS
 18 .debug_str    000ad8bd  00000000  00000000  0002606b  2**0
                  CONTENTS, READONLY, DEBUGGING, OCTETS
 19 .comment      00000043  00000000  00000000  000d3928  2**0
                  CONTENTS, READONLY
 20 .debug_frame  00000b34  00000000  00000000  000d396c  2**2
                  CONTENTS, READONLY, DEBUGGING, OCTETS
 21 .debug_line_str 000000d4  00000000  00000000  000d44a0  2**0
                  CONTENTS, READONLY, DEBUGGING, OCTETS

Disassembly of section .text:

080001d8 <__do_global_dtors_aux>:
 80001d8:	b510      	push	{r4, lr}
 80001da:	4c05      	ldr	r4, [pc, #20]	@ (80001f0 <__do_global_dtors_aux+0x18>)
 80001dc:	7823      	ldrb	r3, [r4, #0]
 80001de:	b933      	cbnz	r3, 80001ee <__do_global_dtors_aux+0x16>
 80001e0:	4b04      	ldr	r3, [pc, #16]	@ (80001f4 <__do_global_dtors_aux+0x1c>)
 80001e2:	b113      	cbz	r3, 80001ea <__do_global_dtors_aux+0x12>
 80001e4:	4804      	ldr	r0, [pc, #16]	@ (80001f8 <__do_global_dtors_aux+0x20>)
 80001e6:	f3af 8000 	nop.w
 80001ea:	2301      	movs	r3, #1
 80001ec:	7023      	strb	r3, [r4, #0]
 80001ee:	bd10      	pop	{r4, pc}
 80001f0:	20000004 	.word	0x20000004
 80001f4:	00000000 	.word	0x00000000
 80001f8:	08000d38 	.word	0x08000d38

080001fc <frame_dummy>:
 80001fc:	b508      	push	{r3, lr}
 80001fe:	4b03      	ldr	r3, [pc, #12]	@ (800020c <frame_dummy+0x10>)
 8000200:	b11b      	cbz	r3, 800020a <frame_dummy+0xe>
 8000202:	4903      	ldr	r1, [pc, #12]	@ (8000210 <frame_dummy+0x14>)
 8000204:	4803      	ldr	r0, [pc, #12]	@ (8000214 <frame_dummy+0x18>)
 8000206:	f3af 8000 	nop.w
 800020a:	bd08      	pop	{r3, pc}
 800020c:	00000000 	.word	0x00000000
 8000210:	20000008 	.word	0x20000008
 8000214:	08000d38 	.word	0x08000d38

08000218 <__NVIC_SetPriorityGrouping>:
           In case of a conflict between priority grouping and available
           priority bits (__NVIC_PRIO_BITS), the smallest possible priority group is set.
  \param [in]      PriorityGroup  Priority grouping field.
 */
__STATIC_INLINE void __NVIC_SetPriorityGrouping(uint32_t PriorityGroup)
{
 8000218:	b480      	push	{r7}
 800021a:	b085      	sub	sp, #20
 800021c:	af00      	add	r7, sp, #0
 800021e:	6078      	str	r0, [r7, #4]
  uint32_t reg_value;
  uint32_t PriorityGroupTmp = (PriorityGroup & (uint32_t)0x07UL);             /* only values 0..7 are used          */
 8000220:	687b      	ldr	r3, [r7, #4]
 8000222:	f003 0307 	and.w	r3, r3, #7
 8000226:	60fb      	str	r3, [r7, #12]

  reg_value  =  SCB->AIRCR;                                                   /* read old register configuration    */
 8000228:	4b0c      	ldr	r3, [pc, #48]	@ (800025c <__NVIC_SetPriorityGrouping+0x44>)
 800022a:	68db      	ldr	r3, [r3, #12]
 800022c:	60bb      	str	r3, [r7, #8]
  reg_value &= ~((uint32_t)(SCB_AIRCR_VECTKEY_Msk | SCB_AIRCR_PRIGROUP_Msk)); /* clear bits to change               */
 800022e:	68ba      	ldr	r2, [r7, #8]
 8000230:	f64f 03ff 	movw	r3, #63743	@ 0xf8ff
 8000234:	4013      	ands	r3, r2
 8000236:	60bb      	str	r3, [r7, #8]
  reg_value  =  (reg_value                                   |
                ((uint32_t)0x5FAUL << SCB_AIRCR_VECTKEY_Pos) |
                (PriorityGroupTmp << SCB_AIRCR_PRIGROUP_Pos)  );              /* Insert write key and priority group */
 8000238:	68fb      	ldr	r3, [r7, #12]
 800023a:	021a      	lsls	r2, r3, #8
                ((uint32_t)0x5FAUL << SCB_AIRCR_VECTKEY_Pos) |
 800023c:	68bb      	ldr	r3, [r7, #8]
 800023e:	4313      	orrs	r3, r2
  reg_value  =  (reg_value                                   |
 8000240:	f043 63bf 	orr.w	r3, r3, #100139008	@ 0x5f80000
 8000244:	f443 3300 	orr.w	r3, r3, #131072	@ 0x20000
 8000248:	60bb      	str	r3, [r7, #8]
  SCB->AIRCR =  reg_value;
 800024a:	4a04      	ldr	r2, [pc, #16]	@ (800025c <__NVIC_SetPriorityGrouping+0x44>)
 800024c:	68bb      	ldr	r3, [r7, #8]
 800024e:	60d3      	str	r3, [r2, #12]
}
 8000250:	bf00      	nop
 8000252:	3714      	adds	r7, #20
 8000254:	46bd      	mov	sp, r7
 8000256:	f85d 7b04 	ldr.w	r7, [sp], #4
 800025a:	4770      	bx	lr
 800025c:	e000ed00 	.word	0xe000ed00

08000260 <__NVIC_GetPriorityGrouping>:
  \brief   Get Priority Grouping
  \details Reads the priority grouping field from the NVIC Interrupt Controller.
  \return                Priority grouping field (SCB->AIRCR [10:8] PRIGROUP field).
 */
__STATIC_INLINE uint32_t __NVIC_GetPriorityGrouping(void)
{
 8000260:	b480      	push	{r7}
 8000262:	af00      	add	r7, sp, #0
  return ((uint32_t)((SCB->AIRCR & SCB_AIRCR_PRIGROUP_Msk) >> SCB_AIRCR_PRIGROUP_Pos));
 8000264:	4b04      	ldr	r3, [pc, #16]	@ (8000278 <__NVIC_GetPriorityGrouping+0x18>)
 8000266:	68db      	ldr	r3, [r3, #12]
 8000268:	0a1b      	lsrs	r3, r3, #8
 800026a:	f003 0307 	and.w	r3, r3, #7
}
 800026e:	4618      	mov	r0, r3
 8000270:	46bd      	mov	sp, r7
 8000272:	f85d 7b04 	ldr.w	r7, [sp], #4
 8000276:	4770      	bx	lr
 8000278:	e000ed00 	.word	0xe000ed00

0800027c <__NVIC_SetPriority>:
  \param [in]      IRQn  Interrupt number.
  \param [in]  priority  Priority to set.
  \note    The priority cannot be set for every processor exception.
 */
__STATIC_INLINE void __NVIC_SetPriority(IRQn_Type IRQn, uint32_t priority)
{
 800027c:	b480      	push	{r7}
 800027e:	b083      	sub	sp, #12
 8000280:	af00      	add	r7, sp, #0
 8000282:	4603      	mov	r3, r0
 8000284:	6039      	str	r1, [r7, #0]
 8000286:	71fb      	strb	r3, [r7, #7]
  if ((int32_t)(IRQn) >= 0)
 8000288:	f997 3007 	ldrsb.w	r3, [r7, #7]
 800028c:	2b00      	cmp	r3, #0
 800028e:	db0a      	blt.n	80002a6 <__NVIC_SetPriority+0x2a>
  {
    NVIC->IP[((uint32_t)IRQn)]               = (uint8_t)((priority << (8U - __NVIC_PRIO_BITS)) & (uint32_t)0xFFUL);
 8000290:	683b      	ldr	r3, [r7, #0]
 8000292:	b2da      	uxtb	r2, r3
 8000294:	490c      	ldr	r1, [pc, #48]	@ (80002c8 <__NVIC_SetPriority+0x4c>)
 8000296:	f997 3007 	ldrsb.w	r3, [r7, #7]
 800029a:	0112      	lsls	r2, r2, #4
 800029c:	b2d2      	uxtb	r2, r2
 800029e:	440b      	add	r3, r1
 80002a0:	f883 2300 	strb.w	r2, [r3, #768]	@ 0x300
  }
  else
  {
    SCB->SHP[(((uint32_t)IRQn) & 0xFUL)-4UL] = (uint8_t)((priority << (8U - __NVIC_PRIO_BITS)) & (uint32_t)0xFFUL);
  }
}
 80002a4:	e00a      	b.n	80002bc <__NVIC_SetPriority+0x40>
    SCB->SHP[(((uint32_t)IRQn) & 0xFUL)-4UL] = (uint8_t)((priority << (8U - __NVIC_PRIO_BITS)) & (uint32_t)0xFFUL);
 80002a6:	683b      	ldr	r3, [r7, #0]
 80002a8:	b2da      	uxtb	r2, r3
 80002aa:	4908      	ldr	r1, [pc, #32]	@ (80002cc <__NVIC_SetPriority+0x50>)
 80002ac:	79fb      	ldrb	r3, [r7, #7]
 80002ae:	f003 030f 	and.w	r3, r3, #15
 80002b2:	3b04      	subs	r3, #4
 80002b4:	0112      	lsls	r2, r2, #4
 80002b6:	b2d2      	uxtb	r2, r2
 80002b8:	440b      	add	r3, r1
 80002ba:	761a      	strb	r2, [r3, #24]
}
 80002bc:	bf00      	nop
 80002be:	370c      	adds	r7, #12
 80002c0:	46bd      	mov	sp, r7
 80002c2:	f85d 7b04 	ldr.w	r7, [sp], #4
 80002c6:	4770      	bx	lr
 80002c8:	e000e100 	.word	0xe000e100
 80002cc:	e000ed00 	.word	0xe000ed00

080002d0 <NVIC_EncodePriority>:
  \param [in]   PreemptPriority  Preemptive priority value (starting from 0).
  \param [in]       SubPriority  Subpriority value (starting from 0).
  \return                        Encoded priority. Value can be used in the function \ref NVIC_SetPriority().
 */
__STATIC_INLINE uint32_t NVIC_EncodePriority (uint32_t PriorityGroup, uint32_t PreemptPriority, uint32_t SubPriority)
{
 80002d0:	b480      	push	{r7}
 80002d2:	b089      	sub	sp, #36	@ 0x24
 80002d4:	af00      	add	r7, sp, #0
 80002d6:	60f8      	str	r0, [r7, #12]
 80002d8:	60b9      	str	r1, [r7, #8]
 80002da:	607a      	str	r2, [r7, #4]
  uint32_t PriorityGroupTmp = (PriorityGroup & (uint32_t)0x07UL);   /* only values 0..7 are used          */
 80002dc:	68fb      	ldr	r3, [r7, #12]
 80002de:	f003 0307 	and.w	r3, r3, #7
 80002e2:	61fb      	str	r3, [r7, #28]
  uint32_t PreemptPriorityBits;
  uint32_t SubPriorityBits;

  PreemptPriorityBits = ((7UL - PriorityGroupTmp) > (uint32_t)(__NVIC_PRIO_BITS)) ? (uint32_t)(__NVIC_PRIO_BITS) : (uint32_t)(7UL - PriorityGroupTmp);
 80002e4:	69fb      	ldr	r3, [r7, #28]
 80002e6:	f1c3 0307 	rsb	r3, r3, #7
 80002ea:	2b04      	cmp	r3, #4
 80002ec:	bf28      	it	cs
 80002ee:	2304      	movcs	r3, #4
 80002f0:	61bb      	str	r3, [r7, #24]
  SubPriorityBits     = ((PriorityGroupTmp + (uint32_t)(__NVIC_PRIO_BITS)) < (uint32_t)7UL) ? (uint32_t)0UL : (uint32_t)((PriorityGroupTmp - 7UL) + (uint32_t)(__NVIC_PRIO_BITS));
 80002f2:	69fb      	ldr	r3, [r7, #28]
 80002f4:	3304      	adds	r3, #4
 80002f6:	2b06      	cmp	r3, #6
 80002f8:	d902      	bls.n	8000300 <NVIC_EncodePriority+0x30>
 80002fa:	69fb      	ldr	r3, [r7, #28]
 80002fc:	3b03      	subs	r3, #3
 80002fe:	e000      	b.n	8000302 <NVIC_EncodePriority+0x32>
 8000300:	2300      	movs	r3, #0
 8000302:	617b      	str	r3, [r7, #20]

  return (
           ((PreemptPriority & (uint32_t)((1UL << (PreemptPriorityBits)) - 1UL)) << SubPriorityBits) |
 8000304:	f04f 32ff 	mov.w	r2, #4294967295
 8000308:	69bb      	ldr	r3, [r7, #24]
 800030a:	fa02 f303 	lsl.w	r3, r2, r3
 800030e:	43da      	mvns	r2, r3
 8000310:	68bb      	ldr	r3, [r7, #8]
 8000312:	401a      	ands	r2, r3
 8000314:	697b      	ldr	r3, [r7, #20]
 8000316:	409a      	lsls	r2, r3
           ((SubPriority     & (uint32_t)((1UL << (SubPriorityBits    )) - 1UL)))
 8000318:	f04f 31ff 	mov.w	r1, #4294967295
 800031c:	697b      	ldr	r3, [r7, #20]
 800031e:	fa01 f303 	lsl.w	r3, r1, r3
 8000322:	43d9      	mvns	r1, r3
 8000324:	687b      	ldr	r3, [r7, #4]
 8000326:	400b      	ands	r3, r1
           ((PreemptPriority & (uint32_t)((1UL << (PreemptPriorityBits)) - 1UL)) << SubPriorityBits) |
 8000328:	4313      	orrs	r3, r2
         );
}
 800032a:	4618      	mov	r0, r3
 800032c:	3724      	adds	r7, #36	@ 0x24
 800032e:	46bd      	mov	sp, r7
 8000330:	f85d 7b04 	ldr.w	r7, [sp], #4
 8000334:	4770      	bx	lr
	...

08000338 <LL_RCC_HSI_Enable>:
  * @brief  Enable HSI oscillator
  * @rmtoll CR           HSION         LL_RCC_HSI_Enable
  * @retval None
  */
__STATIC_INLINE void LL_RCC_HSI_Enable(void)
{
 8000338:	b480      	push	{r7}
 800033a:	af00      	add	r7, sp, #0
  SET_BIT(RCC->CR, RCC_CR_HSION);
 800033c:	4b05      	ldr	r3, [pc, #20]	@ (8000354 <LL_RCC_HSI_Enable+0x1c>)
 800033e:	681b      	ldr	r3, [r3, #0]
 8000340:	4a04      	ldr	r2, [pc, #16]	@ (8000354 <LL_RCC_HSI_Enable+0x1c>)
 8000342:	f443 7380 	orr.w	r3, r3, #256	@ 0x100
 8000346:	6013      	str	r3, [r2, #0]
}
 8000348:	bf00      	nop
 800034a:	46bd      	mov	sp, r7
 800034c:	f85d 7b04 	ldr.w	r7, [sp], #4
 8000350:	4770      	bx	lr
 8000352:	bf00      	nop
 8000354:	40021000 	.word	0x40021000

08000358 <LL_RCC_HSI_IsReady>:
  * @brief  Check if HSI clock is ready
  * @rmtoll CR           HSIRDY        LL_RCC_HSI_IsReady
  * @retval State of bit (1 or 0).
  */
__STATIC_INLINE uint32_t LL_RCC_HSI_IsReady(void)
{
 8000358:	b480      	push	{r7}
 800035a:	af00      	add	r7, sp, #0
  return ((READ_BIT(RCC->CR, RCC_CR_HSIRDY) == (RCC_CR_HSIRDY)) ? 1UL : 0UL);
 800035c:	4b07      	ldr	r3, [pc, #28]	@ (800037c <LL_RCC_HSI_IsReady+0x24>)
 800035e:	681b      	ldr	r3, [r3, #0]
 8000360:	f403 6380 	and.w	r3, r3, #1024	@ 0x400
 8000364:	f5b3 6f80 	cmp.w	r3, #1024	@ 0x400
 8000368:	d101      	bne.n	800036e <LL_RCC_HSI_IsReady+0x16>
 800036a:	2301      	movs	r3, #1
 800036c:	e000      	b.n	8000370 <LL_RCC_HSI_IsReady+0x18>
 800036e:	2300      	movs	r3, #0
}
 8000370:	4618      	mov	r0, r3
 8000372:	46bd      	mov	sp, r7
 8000374:	f85d 7b04 	ldr.w	r7, [sp], #4
 8000378:	4770      	bx	lr
 800037a:	bf00      	nop
 800037c:	40021000 	.word	0x40021000

08000380 <LL_RCC_HSI_SetCalibTrimming>:
  * @rmtoll ICSCR        HSITRIM       LL_RCC_HSI_SetCalibTrimming
  * @param  Value Between Min_Data = 0 and Max_Data = 127
  * @retval None
  */
__STATIC_INLINE void LL_RCC_HSI_SetCalibTrimming(uint32_t Value)
{
 8000380:	b480      	push	{r7}
 8000382:	b083      	sub	sp, #12
 8000384:	af00      	add	r7, sp, #0
 8000386:	6078      	str	r0, [r7, #4]
  MODIFY_REG(RCC->ICSCR, RCC_ICSCR_HSITRIM, Value << RCC_ICSCR_HSITRIM_Pos);
 8000388:	4b07      	ldr	r3, [pc, #28]	@ (80003a8 <LL_RCC_HSI_SetCalibTrimming+0x28>)
 800038a:	685b      	ldr	r3, [r3, #4]
 800038c:	f023 42fe 	bic.w	r2, r3, #2130706432	@ 0x7f000000
 8000390:	687b      	ldr	r3, [r7, #4]
 8000392:	061b      	lsls	r3, r3, #24
 8000394:	4904      	ldr	r1, [pc, #16]	@ (80003a8 <LL_RCC_HSI_SetCalibTrimming+0x28>)
 8000396:	4313      	orrs	r3, r2
 8000398:	604b      	str	r3, [r1, #4]
}
 800039a:	bf00      	nop
 800039c:	370c      	adds	r7, #12
 800039e:	46bd      	mov	sp, r7
 80003a0:	f85d 7b04 	ldr.w	r7, [sp], #4
 80003a4:	4770      	bx	lr
 80003a6:	bf00      	nop
 80003a8:	40021000 	.word	0x40021000

080003ac <LL_RCC_SetSysClkSource>:
  *         @arg @ref LL_RCC_SYS_CLKSOURCE_HSE
  *         @arg @ref LL_RCC_SYS_CLKSOURCE_PLL
  * @retval None
  */
__STATIC_INLINE void LL_RCC_SetSysClkSource(uint32_t Source)
{
 80003ac:	b480      	push	{r7}
 80003ae:	b083      	sub	sp, #12
 80003b0:	af00      	add	r7, sp, #0
 80003b2:	6078      	str	r0, [r7, #4]
  MODIFY_REG(RCC->CFGR, RCC_CFGR_SW, Source);
 80003b4:	4b06      	ldr	r3, [pc, #24]	@ (80003d0 <LL_RCC_SetSysClkSource+0x24>)
 80003b6:	689b      	ldr	r3, [r3, #8]
 80003b8:	f023 0203 	bic.w	r2, r3, #3
 80003bc:	4904      	ldr	r1, [pc, #16]	@ (80003d0 <LL_RCC_SetSysClkSource+0x24>)
 80003be:	687b      	ldr	r3, [r7, #4]
 80003c0:	4313      	orrs	r3, r2
 80003c2:	608b      	str	r3, [r1, #8]
}
 80003c4:	bf00      	nop
 80003c6:	370c      	adds	r7, #12
 80003c8:	46bd      	mov	sp, r7
 80003ca:	f85d 7b04 	ldr.w	r7, [sp], #4
 80003ce:	4770      	bx	lr
 80003d0:	40021000 	.word	0x40021000

080003d4 <LL_RCC_GetSysClkSource>:
  *         @arg @ref LL_RCC_SYS_CLKSOURCE_STATUS_HSI
  *         @arg @ref LL_RCC_SYS_CLKSOURCE_STATUS_HSE
  *         @arg @ref LL_RCC_SYS_CLKSOURCE_STATUS_PLL
  */
__STATIC_INLINE uint32_t LL_RCC_GetSysClkSource(void)
{
 80003d4:	b480      	push	{r7}
 80003d6:	af00      	add	r7, sp, #0
  return (uint32_t)(READ_BIT(RCC->CFGR, RCC_CFGR_SWS));
 80003d8:	4b04      	ldr	r3, [pc, #16]	@ (80003ec <LL_RCC_GetSysClkSource+0x18>)
 80003da:	689b      	ldr	r3, [r3, #8]
 80003dc:	f003 030c 	and.w	r3, r3, #12
}
 80003e0:	4618      	mov	r0, r3
 80003e2:	46bd      	mov	sp, r7
 80003e4:	f85d 7b04 	ldr.w	r7, [sp], #4
 80003e8:	4770      	bx	lr
 80003ea:	bf00      	nop
 80003ec:	40021000 	.word	0x40021000

080003f0 <LL_RCC_SetAHBPrescaler>:
  *         @arg @ref LL_RCC_SYSCLK_DIV_256
  *         @arg @ref LL_RCC_SYSCLK_DIV_512
  * @retval None
  */
__STATIC_INLINE void LL_RCC_SetAHBPrescaler(uint32_t Prescaler)
{
 80003f0:	b480      	push	{r7}
 80003f2:	b083      	sub	sp, #12
 80003f4:	af00      	add	r7, sp, #0
 80003f6:	6078      	str	r0, [r7, #4]
  MODIFY_REG(RCC->CFGR, RCC_CFGR_HPRE, Prescaler);
 80003f8:	4b06      	ldr	r3, [pc, #24]	@ (8000414 <LL_RCC_SetAHBPrescaler+0x24>)
 80003fa:	689b      	ldr	r3, [r3, #8]
 80003fc:	f023 02f0 	bic.w	r2, r3, #240	@ 0xf0
 8000400:	4904      	ldr	r1, [pc, #16]	@ (8000414 <LL_RCC_SetAHBPrescaler+0x24>)
 8000402:	687b      	ldr	r3, [r7, #4]
 8000404:	4313      	orrs	r3, r2
 8000406:	608b      	str	r3, [r1, #8]
}
 8000408:	bf00      	nop
 800040a:	370c      	adds	r7, #12
 800040c:	46bd      	mov	sp, r7
 800040e:	f85d 7b04 	ldr.w	r7, [sp], #4
 8000412:	4770      	bx	lr
 8000414:	40021000 	.word	0x40021000

08000418 <LL_RCC_SetAPB1Prescaler>:
  *         @arg @ref LL_RCC_APB1_DIV_8
  *         @arg @ref LL_RCC_APB1_DIV_16
  * @retval None
  */
__STATIC_INLINE void LL_RCC_SetAPB1Prescaler(uint32_t Prescaler)
{
 8000418:	b480      	push	{r7}
 800041a:	b083      	sub	sp, #12
 800041c:	af00      	add	r7, sp, #0
 800041e:	6078      	str	r0, [r7, #4]
  MODIFY_REG(RCC->CFGR, RCC_CFGR_PPRE1, Prescaler);
 8000420:	4b06      	ldr	r3, [pc, #24]	@ (800043c <LL_RCC_SetAPB1Prescaler+0x24>)
 8000422:	689b      	ldr	r3, [r3, #8]
 8000424:	f423 62e0 	bic.w	r2, r3, #1792	@ 0x700
 8000428:	4904      	ldr	r1, [pc, #16]	@ (800043c <LL_RCC_SetAPB1Prescaler+0x24>)
 800042a:	687b      	ldr	r3, [r7, #4]
 800042c:	4313      	orrs	r3, r2
 800042e:	608b      	str	r3, [r1, #8]
}
 8000430:	bf00      	nop
 8000432:	370c      	adds	r7, #12
 8000434:	46bd      	mov	sp, r7
 8000436:	f85d 7b04 	ldr.w	r7, [sp], #4
 800043a:	4770      	bx	lr
 800043c:	40021000 	.word	0x40021000

08000440 <LL_RCC_SetAPB2Prescaler>:
  *         @arg @ref LL_RCC_APB2_DIV_8
  *         @arg @ref LL_RCC_APB2_DIV_16
  * @retval None
  */
__STATIC_INLINE void LL_RCC_SetAPB2Prescaler(uint32_t Prescaler)
{
 8000440:	b480      	push	{r7}
 8000442:	b083      	sub	sp, #12
 8000444:	af00      	add	r7, sp, #0
 8000446:	6078      	str	r0, [r7, #4]
  MODIFY_REG(RCC->CFGR, RCC_CFGR_PPRE2, Prescaler);
 8000448:	4b06      	ldr	r3, [pc, #24]	@ (8000464 <LL_RCC_SetAPB2Prescaler+0x24>)
 800044a:	689b      	ldr	r3, [r3, #8]
 800044c:	f423 5260 	bic.w	r2, r3, #14336	@ 0x3800
 8000450:	4904      	ldr	r1, [pc, #16]	@ (8000464 <LL_RCC_SetAPB2Prescaler+0x24>)
 8000452:	687b      	ldr	r3, [r7, #4]
 8000454:	4313      	orrs	r3, r2
 8000456:	608b      	str	r3, [r1, #8]
}
 8000458:	bf00      	nop
 800045a:	370c      	adds	r7, #12
 800045c:	46bd      	mov	sp, r7
 800045e:	f85d 7b04 	ldr.w	r7, [sp], #4
 8000462:	4770      	bx	lr
 8000464:	40021000 	.word	0x40021000

08000468 <LL_AHB2_GRP1_EnableClock>:
  *
  *         (*) value not defined in all devices.
  * @retval None
  */
__STATIC_INLINE void LL_AHB2_GRP1_EnableClock(uint32_t Periphs)
{
 8000468:	b480      	push	{r7}
 800046a:	b085      	sub	sp, #20
 800046c:	af00      	add	r7, sp, #0
 800046e:	6078      	str	r0, [r7, #4]
  __IO uint32_t tmpreg;
  SET_BIT(RCC->AHB2ENR, Periphs);
 8000470:	4b08      	ldr	r3, [pc, #32]	@ (8000494 <LL_AHB2_GRP1_EnableClock+0x2c>)
 8000472:	6cda      	ldr	r2, [r3, #76]	@ 0x4c
 8000474:	4907      	ldr	r1, [pc, #28]	@ (8000494 <LL_AHB2_GRP1_EnableClock+0x2c>)
 8000476:	687b      	ldr	r3, [r7, #4]
 8000478:	4313      	orrs	r3, r2
 800047a:	64cb      	str	r3, [r1, #76]	@ 0x4c
  /* Delay after an RCC peripheral clock enabling */
  tmpreg = READ_BIT(RCC->AHB2ENR, Periphs);
 800047c:	4b05      	ldr	r3, [pc, #20]	@ (8000494 <LL_AHB2_GRP1_EnableClock+0x2c>)
 800047e:	6cda      	ldr	r2, [r3, #76]	@ 0x4c
 8000480:	687b      	ldr	r3, [r7, #4]
 8000482:	4013      	ands	r3, r2
 8000484:	60fb      	str	r3, [r7, #12]
  (void)tmpreg;
 8000486:	68fb      	ldr	r3, [r7, #12]
}
 8000488:	bf00      	nop
 800048a:	3714      	adds	r7, #20
 800048c:	46bd      	mov	sp, r7
 800048e:	f85d 7b04 	ldr.w	r7, [sp], #4
 8000492:	4770      	bx	lr
 8000494:	40021000 	.word	0x40021000

08000498 <LL_APB1_GRP1_EnableClock>:
  *
  *         (*) value not defined in all devices.
  * @retval None
  */
__STATIC_INLINE void LL_APB1_GRP1_EnableClock(uint32_t Periphs)
{
 8000498:	b480      	push	{r7}
 800049a:	b085      	sub	sp, #20
 800049c:	af00      	add	r7, sp, #0
 800049e:	6078      	str	r0, [r7, #4]
  __IO uint32_t tmpreg;
  SET_BIT(RCC->APB1ENR1, Periphs);
 80004a0:	4b08      	ldr	r3, [pc, #32]	@ (80004c4 <LL_APB1_GRP1_EnableClock+0x2c>)
 80004a2:	6d9a      	ldr	r2, [r3, #88]	@ 0x58
 80004a4:	4907      	ldr	r1, [pc, #28]	@ (80004c4 <LL_APB1_GRP1_EnableClock+0x2c>)
 80004a6:	687b      	ldr	r3, [r7, #4]
 80004a8:	4313      	orrs	r3, r2
 80004aa:	658b      	str	r3, [r1, #88]	@ 0x58
  /* Delay after an RCC peripheral clock enabling */
  tmpreg = READ_BIT(RCC->APB1ENR1, Periphs);
 80004ac:	4b05      	ldr	r3, [pc, #20]	@ (80004c4 <LL_APB1_GRP1_EnableClock+0x2c>)
 80004ae:	6d9a      	ldr	r2, [r3, #88]	@ 0x58
 80004b0:	687b      	ldr	r3, [r7, #4]
 80004b2:	4013      	ands	r3, r2
 80004b4:	60fb      	str	r3, [r7, #12]
  (void)tmpreg;
 80004b6:	68fb      	ldr	r3, [r7, #12]
}
 80004b8:	bf00      	nop
 80004ba:	3714      	adds	r7, #20
 80004bc:	46bd      	mov	sp, r7
 80004be:	f85d 7b04 	ldr.w	r7, [sp], #4
 80004c2:	4770      	bx	lr
 80004c4:	40021000 	.word	0x40021000

080004c8 <LL_APB2_GRP1_EnableClock>:
  *
  *         (*) value not defined in all devices.
  * @retval None
  */
__STATIC_INLINE void LL_APB2_GRP1_EnableClock(uint32_t Periphs)
{
 80004c8:	b480      	push	{r7}
 80004ca:	b085      	sub	sp, #20
 80004cc:	af00      	add	r7, sp, #0
 80004ce:	6078      	str	r0, [r7, #4]
  __IO uint32_t tmpreg;
  SET_BIT(RCC->APB2ENR, Periphs);
 80004d0:	4b08      	ldr	r3, [pc, #32]	@ (80004f4 <LL_APB2_GRP1_EnableClock+0x2c>)
 80004d2:	6e1a      	ldr	r2, [r3, #96]	@ 0x60
 80004d4:	4907      	ldr	r1, [pc, #28]	@ (80004f4 <LL_APB2_GRP1_EnableClock+0x2c>)
 80004d6:	687b      	ldr	r3, [r7, #4]
 80004d8:	4313      	orrs	r3, r2
 80004da:	660b      	str	r3, [r1, #96]	@ 0x60
  /* Delay after an RCC peripheral clock enabling */
  tmpreg = READ_BIT(RCC->APB2ENR, Periphs);
 80004dc:	4b05      	ldr	r3, [pc, #20]	@ (80004f4 <LL_APB2_GRP1_EnableClock+0x2c>)
 80004de:	6e1a      	ldr	r2, [r3, #96]	@ 0x60
 80004e0:	687b      	ldr	r3, [r7, #4]
 80004e2:	4013      	ands	r3, r2
 80004e4:	60fb      	str	r3, [r7, #12]
  (void)tmpreg;
 80004e6:	68fb      	ldr	r3, [r7, #12]
}
 80004e8:	bf00      	nop
 80004ea:	3714      	adds	r7, #20
 80004ec:	46bd      	mov	sp, r7
 80004ee:	f85d 7b04 	ldr.w	r7, [sp], #4
 80004f2:	4770      	bx	lr
 80004f4:	40021000 	.word	0x40021000

080004f8 <LL_FLASH_SetLatency>:
  *
  *         (*) value not defined in all devices.
  * @retval None
  */
__STATIC_INLINE void LL_FLASH_SetLatency(uint32_t Latency)
{
 80004f8:	b480      	push	{r7}
 80004fa:	b083      	sub	sp, #12
 80004fc:	af00      	add	r7, sp, #0
 80004fe:	6078      	str	r0, [r7, #4]
  MODIFY_REG(FLASH->ACR, FLASH_ACR_LATENCY, Latency);
 8000500:	4b06      	ldr	r3, [pc, #24]	@ (800051c <LL_FLASH_SetLatency+0x24>)
 8000502:	681b      	ldr	r3, [r3, #0]
 8000504:	f023 020f 	bic.w	r2, r3, #15
 8000508:	4904      	ldr	r1, [pc, #16]	@ (800051c <LL_FLASH_SetLatency+0x24>)
 800050a:	687b      	ldr	r3, [r7, #4]
 800050c:	4313      	orrs	r3, r2
 800050e:	600b      	str	r3, [r1, #0]
}
 8000510:	bf00      	nop
 8000512:	370c      	adds	r7, #12
 8000514:	46bd      	mov	sp, r7
 8000516:	f85d 7b04 	ldr.w	r7, [sp], #4
 800051a:	4770      	bx	lr
 800051c:	40022000 	.word	0x40022000

08000520 <LL_FLASH_GetLatency>:
  *         @arg @ref LL_FLASH_LATENCY_15 (*)
  *
  *         (*) value not defined in all devices.
  */
__STATIC_INLINE uint32_t LL_FLASH_GetLatency(void)
{
 8000520:	b480      	push	{r7}
 8000522:	af00      	add	r7, sp, #0
  return (uint32_t)(READ_BIT(FLASH->ACR, FLASH_ACR_LATENCY));
 8000524:	4b04      	ldr	r3, [pc, #16]	@ (8000538 <LL_FLASH_GetLatency+0x18>)
 8000526:	681b      	ldr	r3, [r3, #0]
 8000528:	f003 030f 	and.w	r3, r3, #15
}
 800052c:	4618      	mov	r0, r3
 800052e:	46bd      	mov	sp, r7
 8000530:	f85d 7b04 	ldr.w	r7, [sp], #4
 8000534:	4770      	bx	lr
 8000536:	bf00      	nop
 8000538:	40022000 	.word	0x40022000

0800053c <LL_PWR_SetRegulVoltageScaling>:
  *         @arg @ref LL_PWR_REGU_VOLTAGE_SCALE1
  *         @arg @ref LL_PWR_REGU_VOLTAGE_SCALE2
  * @retval None
  */
__STATIC_INLINE void LL_PWR_SetRegulVoltageScaling(uint32_t VoltageScaling)
{
 800053c:	b480      	push	{r7}
 800053e:	b083      	sub	sp, #12
 8000540:	af00      	add	r7, sp, #0
 8000542:	6078      	str	r0, [r7, #4]
  MODIFY_REG(PWR->CR1, PWR_CR1_VOS, VoltageScaling);
 8000544:	4b06      	ldr	r3, [pc, #24]	@ (8000560 <LL_PWR_SetRegulVoltageScaling+0x24>)
 8000546:	681b      	ldr	r3, [r3, #0]
 8000548:	f423 62c0 	bic.w	r2, r3, #1536	@ 0x600
 800054c:	4904      	ldr	r1, [pc, #16]	@ (8000560 <LL_PWR_SetRegulVoltageScaling+0x24>)
 800054e:	687b      	ldr	r3, [r7, #4]
 8000550:	4313      	orrs	r3, r2
 8000552:	600b      	str	r3, [r1, #0]
}
 8000554:	bf00      	nop
 8000556:	370c      	adds	r7, #12
 8000558:	46bd      	mov	sp, r7
 800055a:	f85d 7b04 	ldr.w	r7, [sp], #4
 800055e:	4770      	bx	lr
 8000560:	40007000 	.word	0x40007000

08000564 <LL_PWR_DisableUCPDDeadBattery>:
  *         control to the UCPD (which should therefore be initialized before doing the disable).
  * @rmtoll CR3          UCPD_DBDIS           LL_PWR_DisableUCPDDeadBattery
  * @retval None
  */
__STATIC_INLINE void LL_PWR_DisableUCPDDeadBattery(void)
{
 8000564:	b480      	push	{r7}
 8000566:	af00      	add	r7, sp, #0
  SET_BIT(PWR->CR3, PWR_CR3_UCPD_DBDIS);
 8000568:	4b05      	ldr	r3, [pc, #20]	@ (8000580 <LL_PWR_DisableUCPDDeadBattery+0x1c>)
 800056a:	689b      	ldr	r3, [r3, #8]
 800056c:	4a04      	ldr	r2, [pc, #16]	@ (8000580 <LL_PWR_DisableUCPDDeadBattery+0x1c>)
 800056e:	f443 4380 	orr.w	r3, r3, #16384	@ 0x4000
 8000572:	6093      	str	r3, [r2, #8]
}
 8000574:	bf00      	nop
 8000576:	46bd      	mov	sp, r7
 8000578:	f85d 7b04 	ldr.w	r7, [sp], #4
 800057c:	4770      	bx	lr
 800057e:	bf00      	nop
 8000580:	40007000 	.word	0x40007000

08000584 <LL_GPIO_IsInputPinSet>:
  *         @arg @ref LL_GPIO_PIN_15
  *         @arg @ref LL_GPIO_PIN_ALL
  * @retval State of bit (1 or 0).
  */
__STATIC_INLINE uint32_t LL_GPIO_IsInputPinSet(GPIO_TypeDef const *GPIOx, uint32_t PinMask)
{
 8000584:	b480      	push	{r7}
 8000586:	b083      	sub	sp, #12
 8000588:	af00      	add	r7, sp, #0
 800058a:	6078      	str	r0, [r7, #4]
 800058c:	6039      	str	r1, [r7, #0]
  return ((READ_BIT(GPIOx->IDR, PinMask) == (PinMask)) ? 1UL : 0UL);
 800058e:	687b      	ldr	r3, [r7, #4]
 8000590:	691a      	ldr	r2, [r3, #16]
 8000592:	683b      	ldr	r3, [r7, #0]
 8000594:	4013      	ands	r3, r2
 8000596:	683a      	ldr	r2, [r7, #0]
 8000598:	429a      	cmp	r2, r3
 800059a:	d101      	bne.n	80005a0 <LL_GPIO_IsInputPinSet+0x1c>
 800059c:	2301      	movs	r3, #1
 800059e:	e000      	b.n	80005a2 <LL_GPIO_IsInputPinSet+0x1e>
 80005a0:	2300      	movs	r3, #0
}
 80005a2:	4618      	mov	r0, r3
 80005a4:	370c      	adds	r7, #12
 80005a6:	46bd      	mov	sp, r7
 80005a8:	f85d 7b04 	ldr.w	r7, [sp], #4
 80005ac:	4770      	bx	lr

080005ae <LL_GPIO_SetOutputPin>:
  *         @arg @ref LL_GPIO_PIN_15
  *         @arg @ref LL_GPIO_PIN_ALL
  * @retval None
  */
__STATIC_INLINE void LL_GPIO_SetOutputPin(GPIO_TypeDef *GPIOx, uint32_t PinMask)
{
 80005ae:	b480      	push	{r7}
 80005b0:	b083      	sub	sp, #12
 80005b2:	af00      	add	r7, sp, #0
 80005b4:	6078      	str	r0, [r7, #4]
 80005b6:	6039      	str	r1, [r7, #0]
  WRITE_REG(GPIOx->BSRR, PinMask);
 80005b8:	687b      	ldr	r3, [r7, #4]
 80005ba:	683a      	ldr	r2, [r7, #0]
 80005bc:	619a      	str	r2, [r3, #24]
}
 80005be:	bf00      	nop
 80005c0:	370c      	adds	r7, #12
 80005c2:	46bd      	mov	sp, r7
 80005c4:	f85d 7b04 	ldr.w	r7, [sp], #4
 80005c8:	4770      	bx	lr

080005ca <LL_GPIO_ResetOutputPin>:
  *         @arg @ref LL_GPIO_PIN_15
  *         @arg @ref LL_GPIO_PIN_ALL
  * @retval None
  */
__STATIC_INLINE void LL_GPIO_ResetOutputPin(GPIO_TypeDef *GPIOx, uint32_t PinMask)
{
 80005ca:	b480      	push	{r7}
 80005cc:	b083      	sub	sp, #12
 80005ce:	af00      	add	r7, sp, #0
 80005d0:	6078      	str	r0, [r7, #4]
 80005d2:	6039      	str	r1, [r7, #0]
  WRITE_REG(GPIOx->BRR, PinMask);
 80005d4:	687b      	ldr	r3, [r7, #4]
 80005d6:	683a      	ldr	r2, [r7, #0]
 80005d8:	629a      	str	r2, [r3, #40]	@ 0x28
}
 80005da:	bf00      	nop
 80005dc:	370c      	adds	r7, #12
 80005de:	46bd      	mov	sp, r7
 80005e0:	f85d 7b04 	ldr.w	r7, [sp], #4
 80005e4:	4770      	bx	lr
	...

080005e8 <main>:
/**
  * @brief  The application entry point.
  * @retval int
  */
int main(void)
{
 80005e8:	b580      	push	{r7, lr}
 80005ea:	b082      	sub	sp, #8
 80005ec:	af00      	add	r7, sp, #0
  /* USER CODE END 1 */

  /* MCU Configuration--------------------------------------------------------*/

  /* Reset of all peripherals, Initializes the Flash interface and the Systick. */
  LL_APB2_GRP1_EnableClock(LL_APB2_GRP1_PERIPH_SYSCFG);
 80005ee:	2001      	movs	r0, #1
 80005f0:	f7ff ff6a 	bl	80004c8 <LL_APB2_GRP1_EnableClock>
  LL_APB1_GRP1_EnableClock(LL_APB1_GRP1_PERIPH_PWR);
 80005f4:	f04f 5080 	mov.w	r0, #268435456	@ 0x10000000
 80005f8:	f7ff ff4e 	bl	8000498 <LL_APB1_GRP1_EnableClock>

  /* System interrupt init*/
  NVIC_SetPriorityGrouping(NVIC_PRIORITYGROUP_4);
 80005fc:	2003      	movs	r0, #3
 80005fe:	f7ff fe0b 	bl	8000218 <__NVIC_SetPriorityGrouping>

  /* SysTick_IRQn interrupt configuration */
  NVIC_SetPriority(SysTick_IRQn, NVIC_EncodePriority(NVIC_GetPriorityGrouping(),15, 0));
 8000602:	f7ff fe2d 	bl	8000260 <__NVIC_GetPriorityGrouping>
 8000606:	4603      	mov	r3, r0
 8000608:	2200      	movs	r2, #0
 800060a:	210f      	movs	r1, #15
 800060c:	4618      	mov	r0, r3
 800060e:	f7ff fe5f 	bl	80002d0 <NVIC_EncodePriority>
 8000612:	4603      	mov	r3, r0
 8000614:	4619      	mov	r1, r3
 8000616:	f04f 30ff 	mov.w	r0, #4294967295
 800061a:	f7ff fe2f 	bl	800027c <__NVIC_SetPriority>

  /** Disable the internal Pull-Up in Dead Battery pins of UCPD peripheral
  */
  LL_PWR_DisableUCPDDeadBattery();
 800061e:	f7ff ffa1 	bl	8000564 <LL_PWR_DisableUCPDDeadBattery>
  /* USER CODE BEGIN Init */

  /* USER CODE END Init */

  /* Configure the system clock */
  SystemClock_Config();
 8000622:	f000 f849 	bl	80006b8 <SystemClock_Config>
  /* USER CODE BEGIN SysInit */

  /* USER CODE END SysInit */

  /* Initialize all configured peripherals */
  MX_GPIO_Init();
 8000626:	f000 f87d 	bl	8000724 <MX_GPIO_Init>
  /* USER CODE BEGIN 2 */
uint8_t mode = 0;
 800062a:	2300      	movs	r3, #0
 800062c:	71fb      	strb	r3, [r7, #7]
  while (1)
  {
    /* USER CODE END WHILE */

    /* USER CODE BEGIN 3 */
	  if (!LL_GPIO_IsInputPinSet(GPIOE, LL_GPIO_PIN_0))
 800062e:	2101      	movs	r1, #1
 8000630:	481f      	ldr	r0, [pc, #124]	@ (80006b0 <main+0xc8>)
 8000632:	f7ff ffa7 	bl	8000584 <LL_GPIO_IsInputPinSet>
 8000636:	4603      	mov	r3, r0
 8000638:	2b00      	cmp	r3, #0
 800063a:	d1f8      	bne.n	800062e <main+0x46>
	  {
		  LL_mDelay(50);
 800063c:	2032      	movs	r0, #50	@ 0x32
 800063e:	f000 fb1f 	bl	8000c80 <LL_mDelay>
		  if(!LL_GPIO_IsInputPinSet(GPIOE, LL_GPIO_PIN_0))
 8000642:	2101      	movs	r1, #1
 8000644:	481a      	ldr	r0, [pc, #104]	@ (80006b0 <main+0xc8>)
 8000646:	f7ff ff9d 	bl	8000584 <LL_GPIO_IsInputPinSet>
 800064a:	4603      	mov	r3, r0
 800064c:	2b00      	cmp	r3, #0
 800064e:	d1ee      	bne.n	800062e <main+0x46>
		  {
			  mode++;
 8000650:	79fb      	ldrb	r3, [r7, #7]
 8000652:	3301      	adds	r3, #1
 8000654:	71fb      	strb	r3, [r7, #7]
			  if(mode > 3) mode = 0;
 8000656:	79fb      	ldrb	r3, [r7, #7]
 8000658:	2b03      	cmp	r3, #3
 800065a:	d901      	bls.n	8000660 <main+0x78>
 800065c:	2300      	movs	r3, #0
 800065e:	71fb      	strb	r3, [r7, #7]
			  LL_GPIO_SetOutputPin(GPIOF, LL_GPIO_PIN_9 | LL_GPIO_PIN_2 | LL_GPIO_PIN_10);
 8000660:	f240 6104 	movw	r1, #1540	@ 0x604
 8000664:	4813      	ldr	r0, [pc, #76]	@ (80006b4 <main+0xcc>)
 8000666:	f7ff ffa2 	bl	80005ae <LL_GPIO_SetOutputPin>

			  if (mode == 1)  LL_GPIO_ResetOutputPin(GPIOF, LL_GPIO_PIN_9);
 800066a:	79fb      	ldrb	r3, [r7, #7]
 800066c:	2b01      	cmp	r3, #1
 800066e:	d105      	bne.n	800067c <main+0x94>
 8000670:	f44f 7100 	mov.w	r1, #512	@ 0x200
 8000674:	480f      	ldr	r0, [pc, #60]	@ (80006b4 <main+0xcc>)
 8000676:	f7ff ffa8 	bl	80005ca <LL_GPIO_ResetOutputPin>
 800067a:	e00f      	b.n	800069c <main+0xb4>
			  else if (mode == 2) LL_GPIO_ResetOutputPin(GPIOF, LL_GPIO_PIN_2);
 800067c:	79fb      	ldrb	r3, [r7, #7]
 800067e:	2b02      	cmp	r3, #2
 8000680:	d104      	bne.n	800068c <main+0xa4>
 8000682:	2104      	movs	r1, #4
 8000684:	480b      	ldr	r0, [pc, #44]	@ (80006b4 <main+0xcc>)
 8000686:	f7ff ffa0 	bl	80005ca <LL_GPIO_ResetOutputPin>
 800068a:	e007      	b.n	800069c <main+0xb4>
			  else if (mode == 3) LL_GPIO_ResetOutputPin(GPIOF, LL_GPIO_PIN_10);
 800068c:	79fb      	ldrb	r3, [r7, #7]
 800068e:	2b03      	cmp	r3, #3
 8000690:	d104      	bne.n	800069c <main+0xb4>
 8000692:	f44f 6180 	mov.w	r1, #1024	@ 0x400
 8000696:	4807      	ldr	r0, [pc, #28]	@ (80006b4 <main+0xcc>)
 8000698:	f7ff ff97 	bl	80005ca <LL_GPIO_ResetOutputPin>

			  while (!LL_GPIO_IsInputPinSet(GPIOE, LL_GPIO_PIN_0));
 800069c:	bf00      	nop
 800069e:	2101      	movs	r1, #1
 80006a0:	4803      	ldr	r0, [pc, #12]	@ (80006b0 <main+0xc8>)
 80006a2:	f7ff ff6f 	bl	8000584 <LL_GPIO_IsInputPinSet>
 80006a6:	4603      	mov	r3, r0
 80006a8:	2b00      	cmp	r3, #0
 80006aa:	d0f8      	beq.n	800069e <main+0xb6>
	  if (!LL_GPIO_IsInputPinSet(GPIOE, LL_GPIO_PIN_0))
 80006ac:	e7bf      	b.n	800062e <main+0x46>
 80006ae:	bf00      	nop
 80006b0:	48001000 	.word	0x48001000
 80006b4:	48001400 	.word	0x48001400

080006b8 <SystemClock_Config>:
/**
  * @brief System Clock Configuration
  * @retval None
  */
void SystemClock_Config(void)
{
 80006b8:	b580      	push	{r7, lr}
 80006ba:	af00      	add	r7, sp, #0
  LL_FLASH_SetLatency(LL_FLASH_LATENCY_0);
 80006bc:	2000      	movs	r0, #0
 80006be:	f7ff ff1b 	bl	80004f8 <LL_FLASH_SetLatency>
  while(LL_FLASH_GetLatency() != LL_FLASH_LATENCY_0)
 80006c2:	bf00      	nop
 80006c4:	f7ff ff2c 	bl	8000520 <LL_FLASH_GetLatency>
 80006c8:	4603      	mov	r3, r0
 80006ca:	2b00      	cmp	r3, #0
 80006cc:	d1fa      	bne.n	80006c4 <SystemClock_Config+0xc>
  {
  }
  LL_PWR_SetRegulVoltageScaling(LL_PWR_REGU_VOLTAGE_SCALE1);
 80006ce:	f44f 7000 	mov.w	r0, #512	@ 0x200
 80006d2:	f7ff ff33 	bl	800053c <LL_PWR_SetRegulVoltageScaling>
  LL_RCC_HSI_Enable();
 80006d6:	f7ff fe2f 	bl	8000338 <LL_RCC_HSI_Enable>
   /* Wait till HSI is ready */
  while(LL_RCC_HSI_IsReady() != 1)
 80006da:	bf00      	nop
 80006dc:	f7ff fe3c 	bl	8000358 <LL_RCC_HSI_IsReady>
 80006e0:	4603      	mov	r3, r0
 80006e2:	2b01      	cmp	r3, #1
 80006e4:	d1fa      	bne.n	80006dc <SystemClock_Config+0x24>
  {
  }

  LL_RCC_HSI_SetCalibTrimming(64);
 80006e6:	2040      	movs	r0, #64	@ 0x40
 80006e8:	f7ff fe4a 	bl	8000380 <LL_RCC_HSI_SetCalibTrimming>
  LL_RCC_SetSysClkSource(LL_RCC_SYS_CLKSOURCE_HSI);
 80006ec:	2001      	movs	r0, #1
 80006ee:	f7ff fe5d 	bl	80003ac <LL_RCC_SetSysClkSource>
   /* Wait till System clock is ready */
  while(LL_RCC_GetSysClkSource() != LL_RCC_SYS_CLKSOURCE_STATUS_HSI)
 80006f2:	bf00      	nop
 80006f4:	f7ff fe6e 	bl	80003d4 <LL_RCC_GetSysClkSource>
 80006f8:	4603      	mov	r3, r0
 80006fa:	2b04      	cmp	r3, #4
 80006fc:	d1fa      	bne.n	80006f4 <SystemClock_Config+0x3c>
  {
  }

  /* Set AHB prescaler*/
  LL_RCC_SetAHBPrescaler(LL_RCC_SYSCLK_DIV_1);
 80006fe:	2000      	movs	r0, #0
 8000700:	f7ff fe76 	bl	80003f0 <LL_RCC_SetAHBPrescaler>
  LL_RCC_SetAPB1Prescaler(LL_RCC_APB1_DIV_1);
 8000704:	2000      	movs	r0, #0
 8000706:	f7ff fe87 	bl	8000418 <LL_RCC_SetAPB1Prescaler>
  LL_RCC_SetAPB2Prescaler(LL_RCC_APB2_DIV_1);
 800070a:	2000      	movs	r0, #0
 800070c:	f7ff fe98 	bl	8000440 <LL_RCC_SetAPB2Prescaler>

  LL_Init1msTick(16000000);
 8000710:	4803      	ldr	r0, [pc, #12]	@ (8000720 <SystemClock_Config+0x68>)
 8000712:	f000 faa7 	bl	8000c64 <LL_Init1msTick>

  LL_SetSystemCoreClock(16000000);
 8000716:	4802      	ldr	r0, [pc, #8]	@ (8000720 <SystemClock_Config+0x68>)
 8000718:	f000 fada 	bl	8000cd0 <LL_SetSystemCoreClock>
}
 800071c:	bf00      	nop
 800071e:	bd80      	pop	{r7, pc}
 8000720:	00f42400 	.word	0x00f42400

08000724 <MX_GPIO_Init>:
  * @brief GPIO Initialization Function
  * @param None
  * @retval None
  */
static void MX_GPIO_Init(void)
{
 8000724:	b580      	push	{r7, lr}
 8000726:	b086      	sub	sp, #24
 8000728:	af00      	add	r7, sp, #0
  LL_GPIO_InitTypeDef GPIO_InitStruct = {0};
 800072a:	463b      	mov	r3, r7
 800072c:	2200      	movs	r2, #0
 800072e:	601a      	str	r2, [r3, #0]
 8000730:	605a      	str	r2, [r3, #4]
 8000732:	609a      	str	r2, [r3, #8]
 8000734:	60da      	str	r2, [r3, #12]
 8000736:	611a      	str	r2, [r3, #16]
 8000738:	615a      	str	r2, [r3, #20]
  /* USER CODE BEGIN MX_GPIO_Init_1 */

  /* USER CODE END MX_GPIO_Init_1 */

  /* GPIO Ports Clock Enable */
  LL_AHB2_GRP1_EnableClock(LL_AHB2_GRP1_PERIPH_GPIOF);
 800073a:	2020      	movs	r0, #32
 800073c:	f7ff fe94 	bl	8000468 <LL_AHB2_GRP1_EnableClock>
  LL_AHB2_GRP1_EnableClock(LL_AHB2_GRP1_PERIPH_GPIOE);
 8000740:	2010      	movs	r0, #16
 8000742:	f7ff fe91 	bl	8000468 <LL_AHB2_GRP1_EnableClock>

  /**/
  LL_GPIO_SetOutputPin(LED2_GPIO_Port, LED2_Pin);
 8000746:	f44f 7100 	mov.w	r1, #512	@ 0x200
 800074a:	4825      	ldr	r0, [pc, #148]	@ (80007e0 <MX_GPIO_Init+0xbc>)
 800074c:	f7ff ff2f 	bl	80005ae <LL_GPIO_SetOutputPin>

  /**/
  LL_GPIO_SetOutputPin(LED1_GPIO_Port, LED1_Pin);
 8000750:	f44f 6180 	mov.w	r1, #1024	@ 0x400
 8000754:	4822      	ldr	r0, [pc, #136]	@ (80007e0 <MX_GPIO_Init+0xbc>)
 8000756:	f7ff ff2a 	bl	80005ae <LL_GPIO_SetOutputPin>

  /**/
  LL_GPIO_SetOutputPin(LED3_GPIO_Port, LED3_Pin);
 800075a:	2104      	movs	r1, #4
 800075c:	4820      	ldr	r0, [pc, #128]	@ (80007e0 <MX_GPIO_Init+0xbc>)
 800075e:	f7ff ff26 	bl	80005ae <LL_GPIO_SetOutputPin>

  /**/
  GPIO_InitStruct.Pin = LED2_Pin;
 8000762:	f44f 7300 	mov.w	r3, #512	@ 0x200
 8000766:	603b      	str	r3, [r7, #0]
  GPIO_InitStruct.Mode = LL_GPIO_MODE_OUTPUT;
 8000768:	2301      	movs	r3, #1
 800076a:	607b      	str	r3, [r7, #4]
  GPIO_InitStruct.Speed = LL_GPIO_SPEED_FREQ_MEDIUM;
 800076c:	2301      	movs	r3, #1
 800076e:	60bb      	str	r3, [r7, #8]
  GPIO_InitStruct.OutputType = LL_GPIO_OUTPUT_PUSHPULL;
 8000770:	2300      	movs	r3, #0
 8000772:	60fb      	str	r3, [r7, #12]
  GPIO_InitStruct.Pull = LL_GPIO_PULL_NO;
 8000774:	2300      	movs	r3, #0
 8000776:	613b      	str	r3, [r7, #16]
  LL_GPIO_Init(LED2_GPIO_Port, &GPIO_InitStruct);
 8000778:	463b      	mov	r3, r7
 800077a:	4619      	mov	r1, r3
 800077c:	4818      	ldr	r0, [pc, #96]	@ (80007e0 <MX_GPIO_Init+0xbc>)
 800077e:	f000 f9e9 	bl	8000b54 <LL_GPIO_Init>

  /**/
  GPIO_InitStruct.Pin = LED1_Pin;
 8000782:	f44f 6380 	mov.w	r3, #1024	@ 0x400
 8000786:	603b      	str	r3, [r7, #0]
  GPIO_InitStruct.Mode = LL_GPIO_MODE_OUTPUT;
 8000788:	2301      	movs	r3, #1
 800078a:	607b      	str	r3, [r7, #4]
  GPIO_InitStruct.Speed = LL_GPIO_SPEED_FREQ_MEDIUM;
 800078c:	2301      	movs	r3, #1
 800078e:	60bb      	str	r3, [r7, #8]
  GPIO_InitStruct.OutputType = LL_GPIO_OUTPUT_PUSHPULL;
 8000790:	2300      	movs	r3, #0
 8000792:	60fb      	str	r3, [r7, #12]
  GPIO_InitStruct.Pull = LL_GPIO_PULL_NO;
 8000794:	2300      	movs	r3, #0
 8000796:	613b      	str	r3, [r7, #16]
  LL_GPIO_Init(LED1_GPIO_Port, &GPIO_InitStruct);
 8000798:	463b      	mov	r3, r7
 800079a:	4619      	mov	r1, r3
 800079c:	4810      	ldr	r0, [pc, #64]	@ (80007e0 <MX_GPIO_Init+0xbc>)
 800079e:	f000 f9d9 	bl	8000b54 <LL_GPIO_Init>

  /**/
  GPIO_InitStruct.Pin = LED3_Pin;
 80007a2:	2304      	movs	r3, #4
 80007a4:	603b      	str	r3, [r7, #0]
  GPIO_InitStruct.Mode = LL_GPIO_MODE_OUTPUT;
 80007a6:	2301      	movs	r3, #1
 80007a8:	607b      	str	r3, [r7, #4]
  GPIO_InitStruct.Speed = LL_GPIO_SPEED_FREQ_MEDIUM;
 80007aa:	2301      	movs	r3, #1
 80007ac:	60bb      	str	r3, [r7, #8]
  GPIO_InitStruct.OutputType = LL_GPIO_OUTPUT_PUSHPULL;
 80007ae:	2300      	movs	r3, #0
 80007b0:	60fb      	str	r3, [r7, #12]
  GPIO_InitStruct.Pull = LL_GPIO_PULL_NO;
 80007b2:	2300      	movs	r3, #0
 80007b4:	613b      	str	r3, [r7, #16]
  LL_GPIO_Init(LED3_GPIO_Port, &GPIO_InitStruct);
 80007b6:	463b      	mov	r3, r7
 80007b8:	4619      	mov	r1, r3
 80007ba:	4809      	ldr	r0, [pc, #36]	@ (80007e0 <MX_GPIO_Init+0xbc>)
 80007bc:	f000 f9ca 	bl	8000b54 <LL_GPIO_Init>

  /**/
  GPIO_InitStruct.Pin = Button1_Pin;
 80007c0:	2301      	movs	r3, #1
 80007c2:	603b      	str	r3, [r7, #0]
  GPIO_InitStruct.Mode = LL_GPIO_MODE_INPUT;
 80007c4:	2300      	movs	r3, #0
 80007c6:	607b      	str	r3, [r7, #4]
  GPIO_InitStruct.Pull = LL_GPIO_PULL_UP;
 80007c8:	2301      	movs	r3, #1
 80007ca:	613b      	str	r3, [r7, #16]
  LL_GPIO_Init(Button1_GPIO_Port, &GPIO_InitStruct);
 80007cc:	463b      	mov	r3, r7
 80007ce:	4619      	mov	r1, r3
 80007d0:	4804      	ldr	r0, [pc, #16]	@ (80007e4 <MX_GPIO_Init+0xc0>)
 80007d2:	f000 f9bf 	bl	8000b54 <LL_GPIO_Init>

  /* USER CODE BEGIN MX_GPIO_Init_2 */

  /* USER CODE END MX_GPIO_Init_2 */
}
 80007d6:	bf00      	nop
 80007d8:	3718      	adds	r7, #24
 80007da:	46bd      	mov	sp, r7
 80007dc:	bd80      	pop	{r7, pc}
 80007de:	bf00      	nop
 80007e0:	48001400 	.word	0x48001400
 80007e4:	48001000 	.word	0x48001000

080007e8 <NMI_Handler>:
/******************************************************************************/
/**
  * @brief This function handles Non maskable interrupt.
  */
void NMI_Handler(void)
{
 80007e8:	b480      	push	{r7}
 80007ea:	af00      	add	r7, sp, #0
  /* USER CODE BEGIN NonMaskableInt_IRQn 0 */

  /* USER CODE END NonMaskableInt_IRQn 0 */
  /* USER CODE BEGIN NonMaskableInt_IRQn 1 */
   while (1)
 80007ec:	bf00      	nop
 80007ee:	e7fd      	b.n	80007ec <NMI_Handler+0x4>

080007f0 <HardFault_Handler>:

/**
  * @brief This function handles Hard fault interrupt.
  */
void HardFault_Handler(void)
{
 80007f0:	b480      	push	{r7}
 80007f2:	af00      	add	r7, sp, #0
  /* USER CODE BEGIN HardFault_IRQn 0 */

  /* USER CODE END HardFault_IRQn 0 */
  while (1)
 80007f4:	bf00      	nop
 80007f6:	e7fd      	b.n	80007f4 <HardFault_Handler+0x4>

080007f8 <MemManage_Handler>:

/**
  * @brief This function handles Memory management fault.
  */
void MemManage_Handler(void)
{
 80007f8:	b480      	push	{r7}
 80007fa:	af00      	add	r7, sp, #0
  /* USER CODE BEGIN MemoryManagement_IRQn 0 */

  /* USER CODE END MemoryManagement_IRQn 0 */
  while (1)
 80007fc:	bf00      	nop
 80007fe:	e7fd      	b.n	80007fc <MemManage_Handler+0x4>

08000800 <BusFault_Handler>:

/**
  * @brief This function handles Prefetch fault, memory access fault.
  */
void BusFault_Handler(void)
{
 8000800:	b480      	push	{r7}
 8000802:	af00      	add	r7, sp, #0
  /* USER CODE BEGIN BusFault_IRQn 0 */

  /* USER CODE END BusFault_IRQn 0 */
  while (1)
 8000804:	bf00      	nop
 8000806:	e7fd      	b.n	8000804 <BusFault_Handler+0x4>

08000808 <UsageFault_Handler>:

/**
  * @brief This function handles Undefined instruction or illegal state.
  */
void UsageFault_Handler(void)
{
 8000808:	b480      	push	{r7}
 800080a:	af00      	add	r7, sp, #0
  /* USER CODE BEGIN UsageFault_IRQn 0 */

  /* USER CODE END UsageFault_IRQn 0 */
  while (1)
 800080c:	bf00      	nop
 800080e:	e7fd      	b.n	800080c <UsageFault_Handler+0x4>

08000810 <SVC_Handler>:

/**
  * @brief This function handles System service call via SWI instruction.
  */
void SVC_Handler(void)
{
 8000810:	b480      	push	{r7}
 8000812:	af00      	add	r7, sp, #0

  /* USER CODE END SVCall_IRQn 0 */
  /* USER CODE BEGIN SVCall_IRQn 1 */

  /* USER CODE END SVCall_IRQn 1 */
}
 8000814:	bf00      	nop
 8000816:	46bd      	mov	sp, r7
 8000818:	f85d 7b04 	ldr.w	r7, [sp], #4
 800081c:	4770      	bx	lr

0800081e <DebugMon_Handler>:

/**
  * @brief This function handles Debug monitor.
  */
void DebugMon_Handler(void)
{
 800081e:	b480      	push	{r7}
 8000820:	af00      	add	r7, sp, #0

  /* USER CODE END DebugMonitor_IRQn 0 */
  /* USER CODE BEGIN DebugMonitor_IRQn 1 */

  /* USER CODE END DebugMonitor_IRQn 1 */
}
 8000822:	bf00      	nop
 8000824:	46bd      	mov	sp, r7
 8000826:	f85d 7b04 	ldr.w	r7, [sp], #4
 800082a:	4770      	bx	lr

0800082c <PendSV_Handler>:

/**
  * @brief This function handles Pendable request for system service.
  */
void PendSV_Handler(void)
{
 800082c:	b480      	push	{r7}
 800082e:	af00      	add	r7, sp, #0

  /* USER CODE END PendSV_IRQn 0 */
  /* USER CODE BEGIN PendSV_IRQn 1 */

  /* USER CODE END PendSV_IRQn 1 */
}
 8000830:	bf00      	nop
 8000832:	46bd      	mov	sp, r7
 8000834:	f85d 7b04 	ldr.w	r7, [sp], #4
 8000838:	4770      	bx	lr

0800083a <SysTick_Handler>:

/**
  * @brief This function handles System tick timer.
  */
void SysTick_Handler(void)
{
 800083a:	b480      	push	{r7}
 800083c:	af00      	add	r7, sp, #0
  /* USER CODE END SysTick_IRQn 0 */

  /* USER CODE BEGIN SysTick_IRQn 1 */

  /* USER CODE END SysTick_IRQn 1 */
}
 800083e:	bf00      	nop
 8000840:	46bd      	mov	sp, r7
 8000842:	f85d 7b04 	ldr.w	r7, [sp], #4
 8000846:	4770      	bx	lr

08000848 <SystemInit>:
  * @param  None
  * @retval None
  */

void SystemInit(void)
{
 8000848:	b480      	push	{r7}
 800084a:	af00      	add	r7, sp, #0
  /* FPU settings ------------------------------------------------------------*/
  #if (__FPU_PRESENT == 1) && (__FPU_USED == 1)
    SCB->CPACR |= ((3UL << (10*2))|(3UL << (11*2)));  /* set CP10 and CP11 Full Access */
 800084c:	4b06      	ldr	r3, [pc, #24]	@ (8000868 <SystemInit+0x20>)
 800084e:	f8d3 3088 	ldr.w	r3, [r3, #136]	@ 0x88
 8000852:	4a05      	ldr	r2, [pc, #20]	@ (8000868 <SystemInit+0x20>)
 8000854:	f443 0370 	orr.w	r3, r3, #15728640	@ 0xf00000
 8000858:	f8c2 3088 	str.w	r3, [r2, #136]	@ 0x88

  /* Configure the Vector Table location add offset address ------------------*/
#if defined(USER_VECT_TAB_ADDRESS)
  SCB->VTOR = VECT_TAB_BASE_ADDRESS | VECT_TAB_OFFSET; /* Vector Table Relocation in Internal SRAM */
#endif /* USER_VECT_TAB_ADDRESS */
}
 800085c:	bf00      	nop
 800085e:	46bd      	mov	sp, r7
 8000860:	f85d 7b04 	ldr.w	r7, [sp], #4
 8000864:	4770      	bx	lr
 8000866:	bf00      	nop
 8000868:	e000ed00 	.word	0xe000ed00

0800086c <Reset_Handler>:

    .section	.text.Reset_Handler
	.weak	Reset_Handler
	.type	Reset_Handler, %function
Reset_Handler:
  ldr   r0, =_estack
 800086c:	480d      	ldr	r0, [pc, #52]	@ (80008a4 <LoopForever+0x2>)
  mov   sp, r0          /* set stack pointer */
 800086e:	4685      	mov	sp, r0

/* Call the clock system initialization function.*/
    bl  SystemInit
 8000870:	f7ff ffea 	bl	8000848 <SystemInit>

/* Copy the data segment initializers from flash to SRAM */
  ldr r0, =_sdata
 8000874:	480c      	ldr	r0, [pc, #48]	@ (80008a8 <LoopForever+0x6>)
  ldr r1, =_edata
 8000876:	490d      	ldr	r1, [pc, #52]	@ (80008ac <LoopForever+0xa>)
  ldr r2, =_sidata
 8000878:	4a0d      	ldr	r2, [pc, #52]	@ (80008b0 <LoopForever+0xe>)
  movs r3, #0
 800087a:	2300      	movs	r3, #0
  b	LoopCopyDataInit
 800087c:	e002      	b.n	8000884 <LoopCopyDataInit>

0800087e <CopyDataInit>:

CopyDataInit:
  ldr r4, [r2, r3]
 800087e:	58d4      	ldr	r4, [r2, r3]
  str r4, [r0, r3]
 8000880:	50c4      	str	r4, [r0, r3]
  adds r3, r3, #4
 8000882:	3304      	adds	r3, #4

08000884 <LoopCopyDataInit>:

LoopCopyDataInit:
  adds r4, r0, r3
 8000884:	18c4      	adds	r4, r0, r3
  cmp r4, r1
 8000886:	428c      	cmp	r4, r1
  bcc CopyDataInit
 8000888:	d3f9      	bcc.n	800087e <CopyDataInit>
  
/* Zero fill the bss segment. */
  ldr r2, =_sbss
 800088a:	4a0a      	ldr	r2, [pc, #40]	@ (80008b4 <LoopForever+0x12>)
  ldr r4, =_ebss
 800088c:	4c0a      	ldr	r4, [pc, #40]	@ (80008b8 <LoopForever+0x16>)
  movs r3, #0
 800088e:	2300      	movs	r3, #0
  b LoopFillZerobss
 8000890:	e001      	b.n	8000896 <LoopFillZerobss>

08000892 <FillZerobss>:

FillZerobss:
  str  r3, [r2]
 8000892:	6013      	str	r3, [r2, #0]
  adds r2, r2, #4
 8000894:	3204      	adds	r2, #4

08000896 <LoopFillZerobss>:

LoopFillZerobss:
  cmp r2, r4
 8000896:	42a2      	cmp	r2, r4
  bcc FillZerobss
 8000898:	d3fb      	bcc.n	8000892 <FillZerobss>

/* Call static constructors */
    bl __libc_init_array
 800089a:	f000 fa29 	bl	8000cf0 <__libc_init_array>
/* Call the application's entry point.*/
	bl	main
 800089e:	f7ff fea3 	bl	80005e8 <main>

080008a2 <LoopForever>:

LoopForever:
    b LoopForever
 80008a2:	e7fe      	b.n	80008a2 <LoopForever>
  ldr   r0, =_estack
 80008a4:	20020000 	.word	0x20020000
  ldr r0, =_sdata
 80008a8:	20000000 	.word	0x20000000
  ldr r1, =_edata
 80008ac:	20000004 	.word	0x20000004
  ldr r2, =_sidata
 80008b0:	08000d58 	.word	0x08000d58
  ldr r2, =_sbss
 80008b4:	20000004 	.word	0x20000004
  ldr r4, =_ebss
 80008b8:	20000020 	.word	0x20000020

080008bc <ADC1_2_IRQHandler>:
 * @retval : None
*/
    .section	.text.Default_Handler,"ax",%progbits
Default_Handler:
Infinite_Loop:
	b	Infinite_Loop
 80008bc:	e7fe      	b.n	80008bc <ADC1_2_IRQHandler>

080008be <LL_GPIO_SetPinMode>:
{
 80008be:	b480      	push	{r7}
 80008c0:	b08b      	sub	sp, #44	@ 0x2c
 80008c2:	af00      	add	r7, sp, #0
 80008c4:	60f8      	str	r0, [r7, #12]
 80008c6:	60b9      	str	r1, [r7, #8]
 80008c8:	607a      	str	r2, [r7, #4]
  MODIFY_REG(GPIOx->MODER, (GPIO_MODER_MODE0 << (POSITION_VAL(Pin) * 2U)), (Mode << (POSITION_VAL(Pin) * 2U)));
 80008ca:	68fb      	ldr	r3, [r7, #12]
 80008cc:	681a      	ldr	r2, [r3, #0]
 80008ce:	68bb      	ldr	r3, [r7, #8]
 80008d0:	617b      	str	r3, [r7, #20]
  uint32_t result;

#if ((defined (__ARM_ARCH_7M__      ) && (__ARM_ARCH_7M__      == 1)) || \
     (defined (__ARM_ARCH_7EM__     ) && (__ARM_ARCH_7EM__     == 1)) || \
     (defined (__ARM_ARCH_8M_MAIN__ ) && (__ARM_ARCH_8M_MAIN__ == 1))    )
   __ASM volatile ("rbit %0, %1" : "=r" (result) : "r" (value) );
 80008d2:	697b      	ldr	r3, [r7, #20]
 80008d4:	fa93 f3a3 	rbit	r3, r3
 80008d8:	613b      	str	r3, [r7, #16]
    result |= value & 1U;
    s--;
  }
  result <<= s;                        /* shift when v's highest bits are zero */
#endif
  return result;
 80008da:	693b      	ldr	r3, [r7, #16]
 80008dc:	61bb      	str	r3, [r7, #24]
     optimisations using the logic "value was passed to __builtin_clz, so it
     is non-zero".
     ARM GCC 7.3 and possibly earlier will optimise this test away, leaving a
     single CLZ instruction.
   */
  if (value == 0U)
 80008de:	69bb      	ldr	r3, [r7, #24]
 80008e0:	2b00      	cmp	r3, #0
 80008e2:	d101      	bne.n	80008e8 <LL_GPIO_SetPinMode+0x2a>
  {
    return 32U;
 80008e4:	2320      	movs	r3, #32
 80008e6:	e003      	b.n	80008f0 <LL_GPIO_SetPinMode+0x32>
  }
  return __builtin_clz(value);
 80008e8:	69bb      	ldr	r3, [r7, #24]
 80008ea:	fab3 f383 	clz	r3, r3
 80008ee:	b2db      	uxtb	r3, r3
 80008f0:	005b      	lsls	r3, r3, #1
 80008f2:	2103      	movs	r1, #3
 80008f4:	fa01 f303 	lsl.w	r3, r1, r3
 80008f8:	43db      	mvns	r3, r3
 80008fa:	401a      	ands	r2, r3
 80008fc:	68bb      	ldr	r3, [r7, #8]
 80008fe:	623b      	str	r3, [r7, #32]
   __ASM volatile ("rbit %0, %1" : "=r" (result) : "r" (value) );
 8000900:	6a3b      	ldr	r3, [r7, #32]
 8000902:	fa93 f3a3 	rbit	r3, r3
 8000906:	61fb      	str	r3, [r7, #28]
  return result;
 8000908:	69fb      	ldr	r3, [r7, #28]
 800090a:	627b      	str	r3, [r7, #36]	@ 0x24
  if (value == 0U)
 800090c:	6a7b      	ldr	r3, [r7, #36]	@ 0x24
 800090e:	2b00      	cmp	r3, #0
 8000910:	d101      	bne.n	8000916 <LL_GPIO_SetPinMode+0x58>
    return 32U;
 8000912:	2320      	movs	r3, #32
 8000914:	e003      	b.n	800091e <LL_GPIO_SetPinMode+0x60>
  return __builtin_clz(value);
 8000916:	6a7b      	ldr	r3, [r7, #36]	@ 0x24
 8000918:	fab3 f383 	clz	r3, r3
 800091c:	b2db      	uxtb	r3, r3
 800091e:	005b      	lsls	r3, r3, #1
 8000920:	6879      	ldr	r1, [r7, #4]
 8000922:	fa01 f303 	lsl.w	r3, r1, r3
 8000926:	431a      	orrs	r2, r3
 8000928:	68fb      	ldr	r3, [r7, #12]
 800092a:	601a      	str	r2, [r3, #0]
}
 800092c:	bf00      	nop
 800092e:	372c      	adds	r7, #44	@ 0x2c
 8000930:	46bd      	mov	sp, r7
 8000932:	f85d 7b04 	ldr.w	r7, [sp], #4
 8000936:	4770      	bx	lr

08000938 <LL_GPIO_SetPinOutputType>:
{
 8000938:	b480      	push	{r7}
 800093a:	b085      	sub	sp, #20
 800093c:	af00      	add	r7, sp, #0
 800093e:	60f8      	str	r0, [r7, #12]
 8000940:	60b9      	str	r1, [r7, #8]
 8000942:	607a      	str	r2, [r7, #4]
  MODIFY_REG(GPIOx->OTYPER, PinMask, (PinMask * OutputType));
 8000944:	68fb      	ldr	r3, [r7, #12]
 8000946:	685a      	ldr	r2, [r3, #4]
 8000948:	68bb      	ldr	r3, [r7, #8]
 800094a:	43db      	mvns	r3, r3
 800094c:	401a      	ands	r2, r3
 800094e:	68bb      	ldr	r3, [r7, #8]
 8000950:	6879      	ldr	r1, [r7, #4]
 8000952:	fb01 f303 	mul.w	r3, r1, r3
 8000956:	431a      	orrs	r2, r3
 8000958:	68fb      	ldr	r3, [r7, #12]
 800095a:	605a      	str	r2, [r3, #4]
}
 800095c:	bf00      	nop
 800095e:	3714      	adds	r7, #20
 8000960:	46bd      	mov	sp, r7
 8000962:	f85d 7b04 	ldr.w	r7, [sp], #4
 8000966:	4770      	bx	lr

08000968 <LL_GPIO_SetPinSpeed>:
{
 8000968:	b480      	push	{r7}
 800096a:	b08b      	sub	sp, #44	@ 0x2c
 800096c:	af00      	add	r7, sp, #0
 800096e:	60f8      	str	r0, [r7, #12]
 8000970:	60b9      	str	r1, [r7, #8]
 8000972:	607a      	str	r2, [r7, #4]
  MODIFY_REG(GPIOx->OSPEEDR, (GPIO_OSPEEDR_OSPEED0 << (POSITION_VAL(Pin) * 2U)),
 8000974:	68fb      	ldr	r3, [r7, #12]
 8000976:	689a      	ldr	r2, [r3, #8]
 8000978:	68bb      	ldr	r3, [r7, #8]
 800097a:	617b      	str	r3, [r7, #20]
   __ASM volatile ("rbit %0, %1" : "=r" (result) : "r" (value) );
 800097c:	697b      	ldr	r3, [r7, #20]
 800097e:	fa93 f3a3 	rbit	r3, r3
 8000982:	613b      	str	r3, [r7, #16]
  return result;
 8000984:	693b      	ldr	r3, [r7, #16]
 8000986:	61bb      	str	r3, [r7, #24]
  if (value == 0U)
 8000988:	69bb      	ldr	r3, [r7, #24]
 800098a:	2b00      	cmp	r3, #0
 800098c:	d101      	bne.n	8000992 <LL_GPIO_SetPinSpeed+0x2a>
    return 32U;
 800098e:	2320      	movs	r3, #32
 8000990:	e003      	b.n	800099a <LL_GPIO_SetPinSpeed+0x32>
  return __builtin_clz(value);
 8000992:	69bb      	ldr	r3, [r7, #24]
 8000994:	fab3 f383 	clz	r3, r3
 8000998:	b2db      	uxtb	r3, r3
 800099a:	005b      	lsls	r3, r3, #1
 800099c:	2103      	movs	r1, #3
 800099e:	fa01 f303 	lsl.w	r3, r1, r3
 80009a2:	43db      	mvns	r3, r3
 80009a4:	401a      	ands	r2, r3
 80009a6:	68bb      	ldr	r3, [r7, #8]
 80009a8:	623b      	str	r3, [r7, #32]
   __ASM volatile ("rbit %0, %1" : "=r" (result) : "r" (value) );
 80009aa:	6a3b      	ldr	r3, [r7, #32]
 80009ac:	fa93 f3a3 	rbit	r3, r3
 80009b0:	61fb      	str	r3, [r7, #28]
  return result;
 80009b2:	69fb      	ldr	r3, [r7, #28]
 80009b4:	627b      	str	r3, [r7, #36]	@ 0x24
  if (value == 0U)
 80009b6:	6a7b      	ldr	r3, [r7, #36]	@ 0x24
 80009b8:	2b00      	cmp	r3, #0
 80009ba:	d101      	bne.n	80009c0 <LL_GPIO_SetPinSpeed+0x58>
    return 32U;
 80009bc:	2320      	movs	r3, #32
 80009be:	e003      	b.n	80009c8 <LL_GPIO_SetPinSpeed+0x60>
  return __builtin_clz(value);
 80009c0:	6a7b      	ldr	r3, [r7, #36]	@ 0x24
 80009c2:	fab3 f383 	clz	r3, r3
 80009c6:	b2db      	uxtb	r3, r3
 80009c8:	005b      	lsls	r3, r3, #1
 80009ca:	6879      	ldr	r1, [r7, #4]
 80009cc:	fa01 f303 	lsl.w	r3, r1, r3
 80009d0:	431a      	orrs	r2, r3
 80009d2:	68fb      	ldr	r3, [r7, #12]
 80009d4:	609a      	str	r2, [r3, #8]
}
 80009d6:	bf00      	nop
 80009d8:	372c      	adds	r7, #44	@ 0x2c
 80009da:	46bd      	mov	sp, r7
 80009dc:	f85d 7b04 	ldr.w	r7, [sp], #4
 80009e0:	4770      	bx	lr

080009e2 <LL_GPIO_SetPinPull>:
{
 80009e2:	b480      	push	{r7}
 80009e4:	b08b      	sub	sp, #44	@ 0x2c
 80009e6:	af00      	add	r7, sp, #0
 80009e8:	60f8      	str	r0, [r7, #12]
 80009ea:	60b9      	str	r1, [r7, #8]
 80009ec:	607a      	str	r2, [r7, #4]
  MODIFY_REG(GPIOx->PUPDR, (GPIO_PUPDR_PUPD0 << (POSITION_VAL(Pin) * 2U)), (Pull << (POSITION_VAL(Pin) * 2U)));
 80009ee:	68fb      	ldr	r3, [r7, #12]
 80009f0:	68da      	ldr	r2, [r3, #12]
 80009f2:	68bb      	ldr	r3, [r7, #8]
 80009f4:	617b      	str	r3, [r7, #20]
   __ASM volatile ("rbit %0, %1" : "=r" (result) : "r" (value) );
 80009f6:	697b      	ldr	r3, [r7, #20]
 80009f8:	fa93 f3a3 	rbit	r3, r3
 80009fc:	613b      	str	r3, [r7, #16]
  return result;
 80009fe:	693b      	ldr	r3, [r7, #16]
 8000a00:	61bb      	str	r3, [r7, #24]
  if (value == 0U)
 8000a02:	69bb      	ldr	r3, [r7, #24]
 8000a04:	2b00      	cmp	r3, #0
 8000a06:	d101      	bne.n	8000a0c <LL_GPIO_SetPinPull+0x2a>
    return 32U;
 8000a08:	2320      	movs	r3, #32
 8000a0a:	e003      	b.n	8000a14 <LL_GPIO_SetPinPull+0x32>
  return __builtin_clz(value);
 8000a0c:	69bb      	ldr	r3, [r7, #24]
 8000a0e:	fab3 f383 	clz	r3, r3
 8000a12:	b2db      	uxtb	r3, r3
 8000a14:	005b      	lsls	r3, r3, #1
 8000a16:	2103      	movs	r1, #3
 8000a18:	fa01 f303 	lsl.w	r3, r1, r3
 8000a1c:	43db      	mvns	r3, r3
 8000a1e:	401a      	ands	r2, r3
 8000a20:	68bb      	ldr	r3, [r7, #8]
 8000a22:	623b      	str	r3, [r7, #32]
   __ASM volatile ("rbit %0, %1" : "=r" (result) : "r" (value) );
 8000a24:	6a3b      	ldr	r3, [r7, #32]
 8000a26:	fa93 f3a3 	rbit	r3, r3
 8000a2a:	61fb      	str	r3, [r7, #28]
  return result;
 8000a2c:	69fb      	ldr	r3, [r7, #28]
 8000a2e:	627b      	str	r3, [r7, #36]	@ 0x24
  if (value == 0U)
 8000a30:	6a7b      	ldr	r3, [r7, #36]	@ 0x24
 8000a32:	2b00      	cmp	r3, #0
 8000a34:	d101      	bne.n	8000a3a <LL_GPIO_SetPinPull+0x58>
    return 32U;
 8000a36:	2320      	movs	r3, #32
 8000a38:	e003      	b.n	8000a42 <LL_GPIO_SetPinPull+0x60>
  return __builtin_clz(value);
 8000a3a:	6a7b      	ldr	r3, [r7, #36]	@ 0x24
 8000a3c:	fab3 f383 	clz	r3, r3
 8000a40:	b2db      	uxtb	r3, r3
 8000a42:	005b      	lsls	r3, r3, #1
 8000a44:	6879      	ldr	r1, [r7, #4]
 8000a46:	fa01 f303 	lsl.w	r3, r1, r3
 8000a4a:	431a      	orrs	r2, r3
 8000a4c:	68fb      	ldr	r3, [r7, #12]
 8000a4e:	60da      	str	r2, [r3, #12]
}
 8000a50:	bf00      	nop
 8000a52:	372c      	adds	r7, #44	@ 0x2c
 8000a54:	46bd      	mov	sp, r7
 8000a56:	f85d 7b04 	ldr.w	r7, [sp], #4
 8000a5a:	4770      	bx	lr

08000a5c <LL_GPIO_SetAFPin_0_7>:
{
 8000a5c:	b480      	push	{r7}
 8000a5e:	b08b      	sub	sp, #44	@ 0x2c
 8000a60:	af00      	add	r7, sp, #0
 8000a62:	60f8      	str	r0, [r7, #12]
 8000a64:	60b9      	str	r1, [r7, #8]
 8000a66:	607a      	str	r2, [r7, #4]
  MODIFY_REG(GPIOx->AFR[0], (GPIO_AFRL_AFSEL0 << (POSITION_VAL(Pin) * 4U)),
 8000a68:	68fb      	ldr	r3, [r7, #12]
 8000a6a:	6a1a      	ldr	r2, [r3, #32]
 8000a6c:	68bb      	ldr	r3, [r7, #8]
 8000a6e:	617b      	str	r3, [r7, #20]
   __ASM volatile ("rbit %0, %1" : "=r" (result) : "r" (value) );
 8000a70:	697b      	ldr	r3, [r7, #20]
 8000a72:	fa93 f3a3 	rbit	r3, r3
 8000a76:	613b      	str	r3, [r7, #16]
  return result;
 8000a78:	693b      	ldr	r3, [r7, #16]
 8000a7a:	61bb      	str	r3, [r7, #24]
  if (value == 0U)
 8000a7c:	69bb      	ldr	r3, [r7, #24]
 8000a7e:	2b00      	cmp	r3, #0
 8000a80:	d101      	bne.n	8000a86 <LL_GPIO_SetAFPin_0_7+0x2a>
    return 32U;
 8000a82:	2320      	movs	r3, #32
 8000a84:	e003      	b.n	8000a8e <LL_GPIO_SetAFPin_0_7+0x32>
  return __builtin_clz(value);
 8000a86:	69bb      	ldr	r3, [r7, #24]
 8000a88:	fab3 f383 	clz	r3, r3
 8000a8c:	b2db      	uxtb	r3, r3
 8000a8e:	009b      	lsls	r3, r3, #2
 8000a90:	210f      	movs	r1, #15
 8000a92:	fa01 f303 	lsl.w	r3, r1, r3
 8000a96:	43db      	mvns	r3, r3
 8000a98:	401a      	ands	r2, r3
 8000a9a:	68bb      	ldr	r3, [r7, #8]
 8000a9c:	623b      	str	r3, [r7, #32]
   __ASM volatile ("rbit %0, %1" : "=r" (result) : "r" (value) );
 8000a9e:	6a3b      	ldr	r3, [r7, #32]
 8000aa0:	fa93 f3a3 	rbit	r3, r3
 8000aa4:	61fb      	str	r3, [r7, #28]
  return result;
 8000aa6:	69fb      	ldr	r3, [r7, #28]
 8000aa8:	627b      	str	r3, [r7, #36]	@ 0x24
  if (value == 0U)
 8000aaa:	6a7b      	ldr	r3, [r7, #36]	@ 0x24
 8000aac:	2b00      	cmp	r3, #0
 8000aae:	d101      	bne.n	8000ab4 <LL_GPIO_SetAFPin_0_7+0x58>
    return 32U;
 8000ab0:	2320      	movs	r3, #32
 8000ab2:	e003      	b.n	8000abc <LL_GPIO_SetAFPin_0_7+0x60>
  return __builtin_clz(value);
 8000ab4:	6a7b      	ldr	r3, [r7, #36]	@ 0x24
 8000ab6:	fab3 f383 	clz	r3, r3
 8000aba:	b2db      	uxtb	r3, r3
 8000abc:	009b      	lsls	r3, r3, #2
 8000abe:	6879      	ldr	r1, [r7, #4]
 8000ac0:	fa01 f303 	lsl.w	r3, r1, r3
 8000ac4:	431a      	orrs	r2, r3
 8000ac6:	68fb      	ldr	r3, [r7, #12]
 8000ac8:	621a      	str	r2, [r3, #32]
}
 8000aca:	bf00      	nop
 8000acc:	372c      	adds	r7, #44	@ 0x2c
 8000ace:	46bd      	mov	sp, r7
 8000ad0:	f85d 7b04 	ldr.w	r7, [sp], #4
 8000ad4:	4770      	bx	lr

08000ad6 <LL_GPIO_SetAFPin_8_15>:
{
 8000ad6:	b480      	push	{r7}
 8000ad8:	b08b      	sub	sp, #44	@ 0x2c
 8000ada:	af00      	add	r7, sp, #0
 8000adc:	60f8      	str	r0, [r7, #12]
 8000ade:	60b9      	str	r1, [r7, #8]
 8000ae0:	607a      	str	r2, [r7, #4]
  MODIFY_REG(GPIOx->AFR[1], (GPIO_AFRH_AFSEL8 << (POSITION_VAL(Pin >> 8U) * 4U)),
 8000ae2:	68fb      	ldr	r3, [r7, #12]
 8000ae4:	6a5a      	ldr	r2, [r3, #36]	@ 0x24
 8000ae6:	68bb      	ldr	r3, [r7, #8]
 8000ae8:	0a1b      	lsrs	r3, r3, #8
 8000aea:	617b      	str	r3, [r7, #20]
   __ASM volatile ("rbit %0, %1" : "=r" (result) : "r" (value) );
 8000aec:	697b      	ldr	r3, [r7, #20]
 8000aee:	fa93 f3a3 	rbit	r3, r3
 8000af2:	613b      	str	r3, [r7, #16]
  return result;
 8000af4:	693b      	ldr	r3, [r7, #16]
 8000af6:	61bb      	str	r3, [r7, #24]
  if (value == 0U)
 8000af8:	69bb      	ldr	r3, [r7, #24]
 8000afa:	2b00      	cmp	r3, #0
 8000afc:	d101      	bne.n	8000b02 <LL_GPIO_SetAFPin_8_15+0x2c>
    return 32U;
 8000afe:	2320      	movs	r3, #32
 8000b00:	e003      	b.n	8000b0a <LL_GPIO_SetAFPin_8_15+0x34>
  return __builtin_clz(value);
 8000b02:	69bb      	ldr	r3, [r7, #24]
 8000b04:	fab3 f383 	clz	r3, r3
 8000b08:	b2db      	uxtb	r3, r3
 8000b0a:	009b      	lsls	r3, r3, #2
 8000b0c:	210f      	movs	r1, #15
 8000b0e:	fa01 f303 	lsl.w	r3, r1, r3
 8000b12:	43db      	mvns	r3, r3
 8000b14:	401a      	ands	r2, r3
 8000b16:	68bb      	ldr	r3, [r7, #8]
 8000b18:	0a1b      	lsrs	r3, r3, #8
 8000b1a:	623b      	str	r3, [r7, #32]
   __ASM volatile ("rbit %0, %1" : "=r" (result) : "r" (value) );
 8000b1c:	6a3b      	ldr	r3, [r7, #32]
 8000b1e:	fa93 f3a3 	rbit	r3, r3
 8000b22:	61fb      	str	r3, [r7, #28]
  return result;
 8000b24:	69fb      	ldr	r3, [r7, #28]
 8000b26:	627b      	str	r3, [r7, #36]	@ 0x24
  if (value == 0U)
 8000b28:	6a7b      	ldr	r3, [r7, #36]	@ 0x24
 8000b2a:	2b00      	cmp	r3, #0
 8000b2c:	d101      	bne.n	8000b32 <LL_GPIO_SetAFPin_8_15+0x5c>
    return 32U;
 8000b2e:	2320      	movs	r3, #32
 8000b30:	e003      	b.n	8000b3a <LL_GPIO_SetAFPin_8_15+0x64>
  return __builtin_clz(value);
 8000b32:	6a7b      	ldr	r3, [r7, #36]	@ 0x24
 8000b34:	fab3 f383 	clz	r3, r3
 8000b38:	b2db      	uxtb	r3, r3
 8000b3a:	009b      	lsls	r3, r3, #2
 8000b3c:	6879      	ldr	r1, [r7, #4]
 8000b3e:	fa01 f303 	lsl.w	r3, r1, r3
 8000b42:	431a      	orrs	r2, r3
 8000b44:	68fb      	ldr	r3, [r7, #12]
 8000b46:	625a      	str	r2, [r3, #36]	@ 0x24
}
 8000b48:	bf00      	nop
 8000b4a:	372c      	adds	r7, #44	@ 0x2c
 8000b4c:	46bd      	mov	sp, r7
 8000b4e:	f85d 7b04 	ldr.w	r7, [sp], #4
 8000b52:	4770      	bx	lr

08000b54 <LL_GPIO_Init>:
  * @retval An ErrorStatus enumeration value:
  *          - SUCCESS: GPIO registers are initialized according to GPIO_InitStruct content
  *          - ERROR:   Not applicable
  */
ErrorStatus LL_GPIO_Init(GPIO_TypeDef *GPIOx, LL_GPIO_InitTypeDef *GPIO_InitStruct)
{
 8000b54:	b580      	push	{r7, lr}
 8000b56:	b088      	sub	sp, #32
 8000b58:	af00      	add	r7, sp, #0
 8000b5a:	6078      	str	r0, [r7, #4]
 8000b5c:	6039      	str	r1, [r7, #0]
  assert_param(IS_LL_GPIO_MODE(GPIO_InitStruct->Mode));
  assert_param(IS_LL_GPIO_PULL(GPIO_InitStruct->Pull));

  /* ------------------------- Configure the port pins ---------------- */
  /* Initialize  pinpos on first pin set */
  pinpos = POSITION_VAL(GPIO_InitStruct->Pin);
 8000b5e:	683b      	ldr	r3, [r7, #0]
 8000b60:	681b      	ldr	r3, [r3, #0]
 8000b62:	613b      	str	r3, [r7, #16]
   __ASM volatile ("rbit %0, %1" : "=r" (result) : "r" (value) );
 8000b64:	693b      	ldr	r3, [r7, #16]
 8000b66:	fa93 f3a3 	rbit	r3, r3
 8000b6a:	60fb      	str	r3, [r7, #12]
  return result;
 8000b6c:	68fb      	ldr	r3, [r7, #12]
 8000b6e:	617b      	str	r3, [r7, #20]
  if (value == 0U)
 8000b70:	697b      	ldr	r3, [r7, #20]
 8000b72:	2b00      	cmp	r3, #0
 8000b74:	d101      	bne.n	8000b7a <LL_GPIO_Init+0x26>
    return 32U;
 8000b76:	2320      	movs	r3, #32
 8000b78:	e003      	b.n	8000b82 <LL_GPIO_Init+0x2e>
  return __builtin_clz(value);
 8000b7a:	697b      	ldr	r3, [r7, #20]
 8000b7c:	fab3 f383 	clz	r3, r3
 8000b80:	b2db      	uxtb	r3, r3
 8000b82:	61fb      	str	r3, [r7, #28]

  /* Configure the port pins */
  while (((GPIO_InitStruct->Pin) >> pinpos) != 0x00000000U)
 8000b84:	e048      	b.n	8000c18 <LL_GPIO_Init+0xc4>
  {
    /* Get current io position */
    currentpin = (GPIO_InitStruct->Pin) & (0x00000001UL << pinpos);
 8000b86:	683b      	ldr	r3, [r7, #0]
 8000b88:	681a      	ldr	r2, [r3, #0]
 8000b8a:	2101      	movs	r1, #1
 8000b8c:	69fb      	ldr	r3, [r7, #28]
 8000b8e:	fa01 f303 	lsl.w	r3, r1, r3
 8000b92:	4013      	ands	r3, r2
 8000b94:	61bb      	str	r3, [r7, #24]

    if (currentpin != 0x00u)
 8000b96:	69bb      	ldr	r3, [r7, #24]
 8000b98:	2b00      	cmp	r3, #0
 8000b9a:	d03a      	beq.n	8000c12 <LL_GPIO_Init+0xbe>
    {
      if ((GPIO_InitStruct->Mode == LL_GPIO_MODE_OUTPUT) || (GPIO_InitStruct->Mode == LL_GPIO_MODE_ALTERNATE))
 8000b9c:	683b      	ldr	r3, [r7, #0]
 8000b9e:	685b      	ldr	r3, [r3, #4]
 8000ba0:	2b01      	cmp	r3, #1
 8000ba2:	d003      	beq.n	8000bac <LL_GPIO_Init+0x58>
 8000ba4:	683b      	ldr	r3, [r7, #0]
 8000ba6:	685b      	ldr	r3, [r3, #4]
 8000ba8:	2b02      	cmp	r3, #2
 8000baa:	d10e      	bne.n	8000bca <LL_GPIO_Init+0x76>
      {
        /* Check Speed mode parameters */
        assert_param(IS_LL_GPIO_SPEED(GPIO_InitStruct->Speed));

        /* Speed mode configuration */
        LL_GPIO_SetPinSpeed(GPIOx, currentpin, GPIO_InitStruct->Speed);
 8000bac:	683b      	ldr	r3, [r7, #0]
 8000bae:	689b      	ldr	r3, [r3, #8]
 8000bb0:	461a      	mov	r2, r3
 8000bb2:	69b9      	ldr	r1, [r7, #24]
 8000bb4:	6878      	ldr	r0, [r7, #4]
 8000bb6:	f7ff fed7 	bl	8000968 <LL_GPIO_SetPinSpeed>

        /* Check Output mode parameters */
        assert_param(IS_LL_GPIO_OUTPUT_TYPE(GPIO_InitStruct->OutputType));

        /* Output mode configuration*/
        LL_GPIO_SetPinOutputType(GPIOx, GPIO_InitStruct->Pin, GPIO_InitStruct->OutputType);
 8000bba:	683b      	ldr	r3, [r7, #0]
 8000bbc:	6819      	ldr	r1, [r3, #0]
 8000bbe:	683b      	ldr	r3, [r7, #0]
 8000bc0:	68db      	ldr	r3, [r3, #12]
 8000bc2:	461a      	mov	r2, r3
 8000bc4:	6878      	ldr	r0, [r7, #4]
 8000bc6:	f7ff feb7 	bl	8000938 <LL_GPIO_SetPinOutputType>
      }

      /* Pull-up Pull down resistor configuration*/
      LL_GPIO_SetPinPull(GPIOx, currentpin, GPIO_InitStruct->Pull);
 8000bca:	683b      	ldr	r3, [r7, #0]
 8000bcc:	691b      	ldr	r3, [r3, #16]
 8000bce:	461a      	mov	r2, r3
 8000bd0:	69b9      	ldr	r1, [r7, #24]
 8000bd2:	6878      	ldr	r0, [r7, #4]
 8000bd4:	f7ff ff05 	bl	80009e2 <LL_GPIO_SetPinPull>

      if (GPIO_InitStruct->Mode == LL_GPIO_MODE_ALTERNATE)
 8000bd8:	683b      	ldr	r3, [r7, #0]
 8000bda:	685b      	ldr	r3, [r3, #4]
 8000bdc:	2b02      	cmp	r3, #2
 8000bde:	d111      	bne.n	8000c04 <LL_GPIO_Init+0xb0>
      {
        /* Check Alternate parameter */
        assert_param(IS_LL_GPIO_ALTERNATE(GPIO_InitStruct->Alternate));

        /* Speed mode configuration */
        if (currentpin < LL_GPIO_PIN_8)
 8000be0:	69bb      	ldr	r3, [r7, #24]
 8000be2:	2bff      	cmp	r3, #255	@ 0xff
 8000be4:	d807      	bhi.n	8000bf6 <LL_GPIO_Init+0xa2>
        {
          LL_GPIO_SetAFPin_0_7(GPIOx, currentpin, GPIO_InitStruct->Alternate);
 8000be6:	683b      	ldr	r3, [r7, #0]
 8000be8:	695b      	ldr	r3, [r3, #20]
 8000bea:	461a      	mov	r2, r3
 8000bec:	69b9      	ldr	r1, [r7, #24]
 8000bee:	6878      	ldr	r0, [r7, #4]
 8000bf0:	f7ff ff34 	bl	8000a5c <LL_GPIO_SetAFPin_0_7>
 8000bf4:	e006      	b.n	8000c04 <LL_GPIO_Init+0xb0>
        }
        else
        {
          LL_GPIO_SetAFPin_8_15(GPIOx, currentpin, GPIO_InitStruct->Alternate);
 8000bf6:	683b      	ldr	r3, [r7, #0]
 8000bf8:	695b      	ldr	r3, [r3, #20]
 8000bfa:	461a      	mov	r2, r3
 8000bfc:	69b9      	ldr	r1, [r7, #24]
 8000bfe:	6878      	ldr	r0, [r7, #4]
 8000c00:	f7ff ff69 	bl	8000ad6 <LL_GPIO_SetAFPin_8_15>
        }
      }

      /* Pin Mode configuration */
      LL_GPIO_SetPinMode(GPIOx, currentpin, GPIO_InitStruct->Mode);
 8000c04:	683b      	ldr	r3, [r7, #0]
 8000c06:	685b      	ldr	r3, [r3, #4]
 8000c08:	461a      	mov	r2, r3
 8000c0a:	69b9      	ldr	r1, [r7, #24]
 8000c0c:	6878      	ldr	r0, [r7, #4]
 8000c0e:	f7ff fe56 	bl	80008be <LL_GPIO_SetPinMode>
    }
    pinpos++;
 8000c12:	69fb      	ldr	r3, [r7, #28]
 8000c14:	3301      	adds	r3, #1
 8000c16:	61fb      	str	r3, [r7, #28]
  while (((GPIO_InitStruct->Pin) >> pinpos) != 0x00000000U)
 8000c18:	683b      	ldr	r3, [r7, #0]
 8000c1a:	681a      	ldr	r2, [r3, #0]
 8000c1c:	69fb      	ldr	r3, [r7, #28]
 8000c1e:	fa22 f303 	lsr.w	r3, r2, r3
 8000c22:	2b00      	cmp	r3, #0
 8000c24:	d1af      	bne.n	8000b86 <LL_GPIO_Init+0x32>
  }
  return (SUCCESS);
 8000c26:	2300      	movs	r3, #0
}
 8000c28:	4618      	mov	r0, r3
 8000c2a:	3720      	adds	r7, #32
 8000c2c:	46bd      	mov	sp, r7
 8000c2e:	bd80      	pop	{r7, pc}

08000c30 <LL_InitTick>:
  *         configuration by calling this function, for a delay use rather osDelay RTOS service.
  * @param  Ticks Frequency of Ticks (Hz)
  * @retval None
  */
__STATIC_INLINE void LL_InitTick(uint32_t HCLKFrequency, uint32_t Ticks)
{
 8000c30:	b480      	push	{r7}
 8000c32:	b083      	sub	sp, #12
 8000c34:	af00      	add	r7, sp, #0
 8000c36:	6078      	str	r0, [r7, #4]
 8000c38:	6039      	str	r1, [r7, #0]
  /* Configure the SysTick to have interrupt in 1ms time base */
  SysTick->LOAD  = (uint32_t)((HCLKFrequency / Ticks) - 1UL);  /* set reload register */
 8000c3a:	687a      	ldr	r2, [r7, #4]
 8000c3c:	683b      	ldr	r3, [r7, #0]
 8000c3e:	fbb2 f3f3 	udiv	r3, r2, r3
 8000c42:	4a07      	ldr	r2, [pc, #28]	@ (8000c60 <LL_InitTick+0x30>)
 8000c44:	3b01      	subs	r3, #1
 8000c46:	6053      	str	r3, [r2, #4]
  SysTick->VAL   = 0UL;                                       /* Load the SysTick Counter Value */
 8000c48:	4b05      	ldr	r3, [pc, #20]	@ (8000c60 <LL_InitTick+0x30>)
 8000c4a:	2200      	movs	r2, #0
 8000c4c:	609a      	str	r2, [r3, #8]
  SysTick->CTRL  = SysTick_CTRL_CLKSOURCE_Msk |
 8000c4e:	4b04      	ldr	r3, [pc, #16]	@ (8000c60 <LL_InitTick+0x30>)
 8000c50:	2205      	movs	r2, #5
 8000c52:	601a      	str	r2, [r3, #0]
                   SysTick_CTRL_ENABLE_Msk;                   /* Enable the Systick Timer */
}
 8000c54:	bf00      	nop
 8000c56:	370c      	adds	r7, #12
 8000c58:	46bd      	mov	sp, r7
 8000c5a:	f85d 7b04 	ldr.w	r7, [sp], #4
 8000c5e:	4770      	bx	lr
 8000c60:	e000e010 	.word	0xe000e010

08000c64 <LL_Init1msTick>:
  * @param  HCLKFrequency HCLK frequency in Hz
  * @note   HCLK frequency can be calculated thanks to RCC helper macro or function @ref LL_RCC_GetSystemClocksFreq
  * @retval None
  */
void LL_Init1msTick(uint32_t HCLKFrequency)
{
 8000c64:	b580      	push	{r7, lr}
 8000c66:	b082      	sub	sp, #8
 8000c68:	af00      	add	r7, sp, #0
 8000c6a:	6078      	str	r0, [r7, #4]
  /* Use frequency provided in argument */
  LL_InitTick(HCLKFrequency, 1000U);
 8000c6c:	f44f 717a 	mov.w	r1, #1000	@ 0x3e8
 8000c70:	6878      	ldr	r0, [r7, #4]
 8000c72:	f7ff ffdd 	bl	8000c30 <LL_InitTick>
}
 8000c76:	bf00      	nop
 8000c78:	3708      	adds	r7, #8
 8000c7a:	46bd      	mov	sp, r7
 8000c7c:	bd80      	pop	{r7, pc}
	...

08000c80 <LL_mDelay>:
  *         will configure Systick to 1ms
  * @param  Delay specifies the delay time length, in milliseconds.
  * @retval None
  */
void LL_mDelay(uint32_t Delay)
{
 8000c80:	b480      	push	{r7}
 8000c82:	b085      	sub	sp, #20
 8000c84:	af00      	add	r7, sp, #0
 8000c86:	6078      	str	r0, [r7, #4]
  __IO uint32_t  tmp = SysTick->CTRL;  /* Clear the COUNTFLAG first */
 8000c88:	4b10      	ldr	r3, [pc, #64]	@ (8000ccc <LL_mDelay+0x4c>)
 8000c8a:	681b      	ldr	r3, [r3, #0]
 8000c8c:	60bb      	str	r3, [r7, #8]
  uint32_t tmpDelay; /* MISRAC2012-Rule-17.8 */
  /* Add this code to indicate that local variable is not used */
  ((void)tmp);
 8000c8e:	68bb      	ldr	r3, [r7, #8]
  tmpDelay = Delay;
 8000c90:	687b      	ldr	r3, [r7, #4]
 8000c92:	60fb      	str	r3, [r7, #12]
  /* Add a period to guaranty minimum wait */
  if(tmpDelay < LL_MAX_DELAY)
 8000c94:	68fb      	ldr	r3, [r7, #12]
 8000c96:	f1b3 3fff 	cmp.w	r3, #4294967295
 8000c9a:	d00c      	beq.n	8000cb6 <LL_mDelay+0x36>
  {
    tmpDelay++;
 8000c9c:	68fb      	ldr	r3, [r7, #12]
 8000c9e:	3301      	adds	r3, #1
 8000ca0:	60fb      	str	r3, [r7, #12]
  }

  while (tmpDelay != 0U)
 8000ca2:	e008      	b.n	8000cb6 <LL_mDelay+0x36>
  {
    if((SysTick->CTRL & SysTick_CTRL_COUNTFLAG_Msk) != 0U)
 8000ca4:	4b09      	ldr	r3, [pc, #36]	@ (8000ccc <LL_mDelay+0x4c>)
 8000ca6:	681b      	ldr	r3, [r3, #0]
 8000ca8:	f403 3380 	and.w	r3, r3, #65536	@ 0x10000
 8000cac:	2b00      	cmp	r3, #0
 8000cae:	d002      	beq.n	8000cb6 <LL_mDelay+0x36>
    {
      tmpDelay--;
 8000cb0:	68fb      	ldr	r3, [r7, #12]
 8000cb2:	3b01      	subs	r3, #1
 8000cb4:	60fb      	str	r3, [r7, #12]
  while (tmpDelay != 0U)
 8000cb6:	68fb      	ldr	r3, [r7, #12]
 8000cb8:	2b00      	cmp	r3, #0
 8000cba:	d1f3      	bne.n	8000ca4 <LL_mDelay+0x24>
    }
  }
}
 8000cbc:	bf00      	nop
 8000cbe:	bf00      	nop
 8000cc0:	3714      	adds	r7, #20
 8000cc2:	46bd      	mov	sp, r7
 8000cc4:	f85d 7b04 	ldr.w	r7, [sp], #4
 8000cc8:	4770      	bx	lr
 8000cca:	bf00      	nop
 8000ccc:	e000e010 	.word	0xe000e010

08000cd0 <LL_SetSystemCoreClock>:
  * @note   Variable can be calculated also through SystemCoreClockUpdate function.
  * @param  HCLKFrequency HCLK frequency in Hz (can be calculated thanks to RCC helper macro)
  * @retval None
  */
void LL_SetSystemCoreClock(uint32_t HCLKFrequency)
{
 8000cd0:	b480      	push	{r7}
 8000cd2:	b083      	sub	sp, #12
 8000cd4:	af00      	add	r7, sp, #0
 8000cd6:	6078      	str	r0, [r7, #4]
  /* HCLK clock frequency */
  SystemCoreClock = HCLKFrequency;
 8000cd8:	4a04      	ldr	r2, [pc, #16]	@ (8000cec <LL_SetSystemCoreClock+0x1c>)
 8000cda:	687b      	ldr	r3, [r7, #4]
 8000cdc:	6013      	str	r3, [r2, #0]
}
 8000cde:	bf00      	nop
 8000ce0:	370c      	adds	r7, #12
 8000ce2:	46bd      	mov	sp, r7
 8000ce4:	f85d 7b04 	ldr.w	r7, [sp], #4
 8000ce8:	4770      	bx	lr
 8000cea:	bf00      	nop
 8000cec:	20000000 	.word	0x20000000

08000cf0 <__libc_init_array>:
 8000cf0:	b570      	push	{r4, r5, r6, lr}
 8000cf2:	4d0d      	ldr	r5, [pc, #52]	@ (8000d28 <__libc_init_array+0x38>)
 8000cf4:	4c0d      	ldr	r4, [pc, #52]	@ (8000d2c <__libc_init_array+0x3c>)
 8000cf6:	1b64      	subs	r4, r4, r5
 8000cf8:	10a4      	asrs	r4, r4, #2
 8000cfa:	2600      	movs	r6, #0
 8000cfc:	42a6      	cmp	r6, r4
 8000cfe:	d109      	bne.n	8000d14 <__libc_init_array+0x24>
 8000d00:	4d0b      	ldr	r5, [pc, #44]	@ (8000d30 <__libc_init_array+0x40>)
 8000d02:	4c0c      	ldr	r4, [pc, #48]	@ (8000d34 <__libc_init_array+0x44>)
 8000d04:	f000 f818 	bl	8000d38 <_init>
 8000d08:	1b64      	subs	r4, r4, r5
 8000d0a:	10a4      	asrs	r4, r4, #2
 8000d0c:	2600      	movs	r6, #0
 8000d0e:	42a6      	cmp	r6, r4
 8000d10:	d105      	bne.n	8000d1e <__libc_init_array+0x2e>
 8000d12:	bd70      	pop	{r4, r5, r6, pc}
 8000d14:	f855 3b04 	ldr.w	r3, [r5], #4
 8000d18:	4798      	blx	r3
 8000d1a:	3601      	adds	r6, #1
 8000d1c:	e7ee      	b.n	8000cfc <__libc_init_array+0xc>
 8000d1e:	f855 3b04 	ldr.w	r3, [r5], #4
 8000d22:	4798      	blx	r3
 8000d24:	3601      	adds	r6, #1
 8000d26:	e7f2      	b.n	8000d0e <__libc_init_array+0x1e>
 8000d28:	08000d50 	.word	0x08000d50
 8000d2c:	08000d50 	.word	0x08000d50
 8000d30:	08000d50 	.word	0x08000d50
 8000d34:	08000d54 	.word	0x08000d54

08000d38 <_init>:
 8000d38:	b5f8      	push	{r3, r4, r5, r6, r7, lr}
 8000d3a:	bf00      	nop
 8000d3c:	bcf8      	pop	{r3, r4, r5, r6, r7}
 8000d3e:	bc08      	pop	{r3}
 8000d40:	469e      	mov	lr, r3
 8000d42:	4770      	bx	lr

08000d44 <_fini>:
 8000d44:	b5f8      	push	{r3, r4, r5, r6, r7, lr}
 8000d46:	bf00      	nop
 8000d48:	bcf8      	pop	{r3, r4, r5, r6, r7}
 8000d4a:	bc08      	pop	{r3}
 8000d4c:	469e      	mov	lr, r3
 8000d4e:	4770      	bx	lr
